ARM GAS  /var/folders/d0/j8mk8sqj1vq6yyqnh7jfzr040000gn/T//cc2np6Aj.s 			page 1


   1              		.cpu cortex-m3
   2              		.arch armv7-m
   3              		.fpu softvfp
   4              		.eabi_attribute 20, 1
   5              		.eabi_attribute 21, 1
   6              		.eabi_attribute 23, 3
   7              		.eabi_attribute 24, 1
   8              		.eabi_attribute 25, 1
   9              		.eabi_attribute 26, 1
  10              		.eabi_attribute 30, 1
  11              		.eabi_attribute 34, 1
  12              		.eabi_attribute 18, 4
  13              		.file	"usbd_conf.c"
  14              		.text
  15              	.Ltext0:
  16              		.cfi_sections	.debug_frame
  17              		.file 1 "USB_DEVICE/Target/usbd_conf.c"
  18              		.section	.text.USBD_Get_USB_Status,"ax",%progbits
  19              		.align	1
  20              		.syntax unified
  21              		.thumb
  22              		.thumb_func
  24              	USBD_Get_USB_Status:
  25              	.LVL0:
  26              	.LFB99:
   1:USB_DEVICE/Target/usbd_conf.c **** /* USER CODE BEGIN Header */
   2:USB_DEVICE/Target/usbd_conf.c **** /**
   3:USB_DEVICE/Target/usbd_conf.c ****   ******************************************************************************
   4:USB_DEVICE/Target/usbd_conf.c ****   * @file           : Target/usbd_conf.c
   5:USB_DEVICE/Target/usbd_conf.c ****   * @version        : v2.0_Cube
   6:USB_DEVICE/Target/usbd_conf.c ****   * @brief          : This file implements the board support package for the USB device library
   7:USB_DEVICE/Target/usbd_conf.c ****   ******************************************************************************
   8:USB_DEVICE/Target/usbd_conf.c ****   * @attention
   9:USB_DEVICE/Target/usbd_conf.c ****   *
  10:USB_DEVICE/Target/usbd_conf.c ****   * Copyright (c) 2023 STMicroelectronics.
  11:USB_DEVICE/Target/usbd_conf.c ****   * All rights reserved.
  12:USB_DEVICE/Target/usbd_conf.c ****   *
  13:USB_DEVICE/Target/usbd_conf.c ****   * This software is licensed under terms that can be found in the LICENSE file
  14:USB_DEVICE/Target/usbd_conf.c ****   * in the root directory of this software component.
  15:USB_DEVICE/Target/usbd_conf.c ****   * If no LICENSE file comes with this software, it is provided AS-IS.
  16:USB_DEVICE/Target/usbd_conf.c ****   *
  17:USB_DEVICE/Target/usbd_conf.c ****   ******************************************************************************
  18:USB_DEVICE/Target/usbd_conf.c ****   */
  19:USB_DEVICE/Target/usbd_conf.c **** /* USER CODE END Header */
  20:USB_DEVICE/Target/usbd_conf.c **** 
  21:USB_DEVICE/Target/usbd_conf.c **** /* Includes ------------------------------------------------------------------*/
  22:USB_DEVICE/Target/usbd_conf.c **** #include "stm32f1xx.h"
  23:USB_DEVICE/Target/usbd_conf.c **** #include "stm32f1xx_hal.h"
  24:USB_DEVICE/Target/usbd_conf.c **** #include "usbd_def.h"
  25:USB_DEVICE/Target/usbd_conf.c **** #include "usbd_core.h"
  26:USB_DEVICE/Target/usbd_conf.c **** #include "usbd_dfu.h"
  27:USB_DEVICE/Target/usbd_conf.c **** 
  28:USB_DEVICE/Target/usbd_conf.c **** /* USER CODE BEGIN Includes */
  29:USB_DEVICE/Target/usbd_conf.c **** 
  30:USB_DEVICE/Target/usbd_conf.c **** /* USER CODE END Includes */
  31:USB_DEVICE/Target/usbd_conf.c **** 
  32:USB_DEVICE/Target/usbd_conf.c **** /* Private typedef -----------------------------------------------------------*/
ARM GAS  /var/folders/d0/j8mk8sqj1vq6yyqnh7jfzr040000gn/T//cc2np6Aj.s 			page 2


  33:USB_DEVICE/Target/usbd_conf.c **** /* Private define ------------------------------------------------------------*/
  34:USB_DEVICE/Target/usbd_conf.c **** /* Private macro -------------------------------------------------------------*/
  35:USB_DEVICE/Target/usbd_conf.c **** 
  36:USB_DEVICE/Target/usbd_conf.c **** /* USER CODE BEGIN PV */
  37:USB_DEVICE/Target/usbd_conf.c **** /* Private variables ---------------------------------------------------------*/
  38:USB_DEVICE/Target/usbd_conf.c **** 
  39:USB_DEVICE/Target/usbd_conf.c **** /* USER CODE END PV */
  40:USB_DEVICE/Target/usbd_conf.c **** 
  41:USB_DEVICE/Target/usbd_conf.c **** PCD_HandleTypeDef hpcd_USB_FS;
  42:USB_DEVICE/Target/usbd_conf.c **** void Error_Handler(void);
  43:USB_DEVICE/Target/usbd_conf.c **** 
  44:USB_DEVICE/Target/usbd_conf.c **** /* USER CODE BEGIN 0 */
  45:USB_DEVICE/Target/usbd_conf.c **** 
  46:USB_DEVICE/Target/usbd_conf.c **** /* USER CODE END 0 */
  47:USB_DEVICE/Target/usbd_conf.c **** 
  48:USB_DEVICE/Target/usbd_conf.c **** /* USER CODE BEGIN PFP */
  49:USB_DEVICE/Target/usbd_conf.c **** /* Private function prototypes -----------------------------------------------*/
  50:USB_DEVICE/Target/usbd_conf.c **** 
  51:USB_DEVICE/Target/usbd_conf.c **** /* USER CODE END PFP */
  52:USB_DEVICE/Target/usbd_conf.c **** 
  53:USB_DEVICE/Target/usbd_conf.c **** /* Private functions ---------------------------------------------------------*/
  54:USB_DEVICE/Target/usbd_conf.c **** static USBD_StatusTypeDef USBD_Get_USB_Status(HAL_StatusTypeDef hal_status);
  55:USB_DEVICE/Target/usbd_conf.c **** /* USER CODE BEGIN 1 */
  56:USB_DEVICE/Target/usbd_conf.c **** 
  57:USB_DEVICE/Target/usbd_conf.c **** /* USER CODE END 1 */
  58:USB_DEVICE/Target/usbd_conf.c **** #if (USE_HAL_PCD_REGISTER_CALLBACKS == 1U)
  59:USB_DEVICE/Target/usbd_conf.c **** static void PCDEx_SetConnectionState(PCD_HandleTypeDef *hpcd, uint8_t state);
  60:USB_DEVICE/Target/usbd_conf.c **** #else
  61:USB_DEVICE/Target/usbd_conf.c **** void HAL_PCDEx_SetConnectionState(PCD_HandleTypeDef *hpcd, uint8_t state);
  62:USB_DEVICE/Target/usbd_conf.c **** #endif /* USE_HAL_PCD_REGISTER_CALLBACKS */
  63:USB_DEVICE/Target/usbd_conf.c **** 
  64:USB_DEVICE/Target/usbd_conf.c **** /*******************************************************************************
  65:USB_DEVICE/Target/usbd_conf.c ****                        LL Driver Callbacks (PCD -> USB Device Library)
  66:USB_DEVICE/Target/usbd_conf.c **** *******************************************************************************/
  67:USB_DEVICE/Target/usbd_conf.c **** /* MSP Init */
  68:USB_DEVICE/Target/usbd_conf.c **** 
  69:USB_DEVICE/Target/usbd_conf.c **** void HAL_PCD_MspInit(PCD_HandleTypeDef* pcdHandle)
  70:USB_DEVICE/Target/usbd_conf.c **** {
  71:USB_DEVICE/Target/usbd_conf.c ****   if(pcdHandle->Instance==USB)
  72:USB_DEVICE/Target/usbd_conf.c ****   {
  73:USB_DEVICE/Target/usbd_conf.c ****   /* USER CODE BEGIN USB_MspInit 0 */
  74:USB_DEVICE/Target/usbd_conf.c **** 
  75:USB_DEVICE/Target/usbd_conf.c ****   /* USER CODE END USB_MspInit 0 */
  76:USB_DEVICE/Target/usbd_conf.c ****     /* Peripheral clock enable */
  77:USB_DEVICE/Target/usbd_conf.c ****     __HAL_RCC_USB_CLK_ENABLE();
  78:USB_DEVICE/Target/usbd_conf.c **** 
  79:USB_DEVICE/Target/usbd_conf.c ****     /* Peripheral interrupt init */
  80:USB_DEVICE/Target/usbd_conf.c ****     HAL_NVIC_SetPriority(USB_LP_CAN1_RX0_IRQn, 0, 0);
  81:USB_DEVICE/Target/usbd_conf.c ****     HAL_NVIC_EnableIRQ(USB_LP_CAN1_RX0_IRQn);
  82:USB_DEVICE/Target/usbd_conf.c ****   /* USER CODE BEGIN USB_MspInit 1 */
  83:USB_DEVICE/Target/usbd_conf.c **** 
  84:USB_DEVICE/Target/usbd_conf.c ****   /* USER CODE END USB_MspInit 1 */
  85:USB_DEVICE/Target/usbd_conf.c ****   }
  86:USB_DEVICE/Target/usbd_conf.c **** }
  87:USB_DEVICE/Target/usbd_conf.c **** 
  88:USB_DEVICE/Target/usbd_conf.c **** void HAL_PCD_MspDeInit(PCD_HandleTypeDef* pcdHandle)
  89:USB_DEVICE/Target/usbd_conf.c **** {
ARM GAS  /var/folders/d0/j8mk8sqj1vq6yyqnh7jfzr040000gn/T//cc2np6Aj.s 			page 3


  90:USB_DEVICE/Target/usbd_conf.c ****   if(pcdHandle->Instance==USB)
  91:USB_DEVICE/Target/usbd_conf.c ****   {
  92:USB_DEVICE/Target/usbd_conf.c ****   /* USER CODE BEGIN USB_MspDeInit 0 */
  93:USB_DEVICE/Target/usbd_conf.c **** 
  94:USB_DEVICE/Target/usbd_conf.c ****   /* USER CODE END USB_MspDeInit 0 */
  95:USB_DEVICE/Target/usbd_conf.c ****     /* Peripheral clock disable */
  96:USB_DEVICE/Target/usbd_conf.c ****     __HAL_RCC_USB_CLK_DISABLE();
  97:USB_DEVICE/Target/usbd_conf.c **** 
  98:USB_DEVICE/Target/usbd_conf.c ****     /* Peripheral interrupt Deinit*/
  99:USB_DEVICE/Target/usbd_conf.c ****     HAL_NVIC_DisableIRQ(USB_LP_CAN1_RX0_IRQn);
 100:USB_DEVICE/Target/usbd_conf.c **** 
 101:USB_DEVICE/Target/usbd_conf.c ****   /* USER CODE BEGIN USB_MspDeInit 1 */
 102:USB_DEVICE/Target/usbd_conf.c **** 
 103:USB_DEVICE/Target/usbd_conf.c ****   /* USER CODE END USB_MspDeInit 1 */
 104:USB_DEVICE/Target/usbd_conf.c ****   }
 105:USB_DEVICE/Target/usbd_conf.c **** }
 106:USB_DEVICE/Target/usbd_conf.c **** 
 107:USB_DEVICE/Target/usbd_conf.c **** /**
 108:USB_DEVICE/Target/usbd_conf.c ****   * @brief  Setup stage callback
 109:USB_DEVICE/Target/usbd_conf.c ****   * @param  hpcd: PCD handle
 110:USB_DEVICE/Target/usbd_conf.c ****   * @retval None
 111:USB_DEVICE/Target/usbd_conf.c ****   */
 112:USB_DEVICE/Target/usbd_conf.c **** #if (USE_HAL_PCD_REGISTER_CALLBACKS == 1U)
 113:USB_DEVICE/Target/usbd_conf.c **** static void PCD_SetupStageCallback(PCD_HandleTypeDef *hpcd)
 114:USB_DEVICE/Target/usbd_conf.c **** #else
 115:USB_DEVICE/Target/usbd_conf.c **** void HAL_PCD_SetupStageCallback(PCD_HandleTypeDef *hpcd)
 116:USB_DEVICE/Target/usbd_conf.c **** #endif /* USE_HAL_PCD_REGISTER_CALLBACKS */
 117:USB_DEVICE/Target/usbd_conf.c **** {
 118:USB_DEVICE/Target/usbd_conf.c ****   USBD_LL_SetupStage((USBD_HandleTypeDef*)hpcd->pData, (uint8_t *)hpcd->Setup);
 119:USB_DEVICE/Target/usbd_conf.c **** }
 120:USB_DEVICE/Target/usbd_conf.c **** 
 121:USB_DEVICE/Target/usbd_conf.c **** /**
 122:USB_DEVICE/Target/usbd_conf.c ****   * @brief  Data Out stage callback.
 123:USB_DEVICE/Target/usbd_conf.c ****   * @param  hpcd: PCD handle
 124:USB_DEVICE/Target/usbd_conf.c ****   * @param  epnum: Endpoint number
 125:USB_DEVICE/Target/usbd_conf.c ****   * @retval None
 126:USB_DEVICE/Target/usbd_conf.c ****   */
 127:USB_DEVICE/Target/usbd_conf.c **** #if (USE_HAL_PCD_REGISTER_CALLBACKS == 1U)
 128:USB_DEVICE/Target/usbd_conf.c **** static void PCD_DataOutStageCallback(PCD_HandleTypeDef *hpcd, uint8_t epnum)
 129:USB_DEVICE/Target/usbd_conf.c **** #else
 130:USB_DEVICE/Target/usbd_conf.c **** void HAL_PCD_DataOutStageCallback(PCD_HandleTypeDef *hpcd, uint8_t epnum)
 131:USB_DEVICE/Target/usbd_conf.c **** #endif /* USE_HAL_PCD_REGISTER_CALLBACKS */
 132:USB_DEVICE/Target/usbd_conf.c **** {
 133:USB_DEVICE/Target/usbd_conf.c ****   USBD_LL_DataOutStage((USBD_HandleTypeDef*)hpcd->pData, epnum, hpcd->OUT_ep[epnum].xfer_buff);
 134:USB_DEVICE/Target/usbd_conf.c **** }
 135:USB_DEVICE/Target/usbd_conf.c **** 
 136:USB_DEVICE/Target/usbd_conf.c **** /**
 137:USB_DEVICE/Target/usbd_conf.c ****   * @brief  Data In stage callback.
 138:USB_DEVICE/Target/usbd_conf.c ****   * @param  hpcd: PCD handle
 139:USB_DEVICE/Target/usbd_conf.c ****   * @param  epnum: Endpoint number
 140:USB_DEVICE/Target/usbd_conf.c ****   * @retval None
 141:USB_DEVICE/Target/usbd_conf.c ****   */
 142:USB_DEVICE/Target/usbd_conf.c **** #if (USE_HAL_PCD_REGISTER_CALLBACKS == 1U)
 143:USB_DEVICE/Target/usbd_conf.c **** static void PCD_DataInStageCallback(PCD_HandleTypeDef *hpcd, uint8_t epnum)
 144:USB_DEVICE/Target/usbd_conf.c **** #else
 145:USB_DEVICE/Target/usbd_conf.c **** void HAL_PCD_DataInStageCallback(PCD_HandleTypeDef *hpcd, uint8_t epnum)
 146:USB_DEVICE/Target/usbd_conf.c **** #endif /* USE_HAL_PCD_REGISTER_CALLBACKS */
ARM GAS  /var/folders/d0/j8mk8sqj1vq6yyqnh7jfzr040000gn/T//cc2np6Aj.s 			page 4


 147:USB_DEVICE/Target/usbd_conf.c **** {
 148:USB_DEVICE/Target/usbd_conf.c ****   USBD_LL_DataInStage((USBD_HandleTypeDef*)hpcd->pData, epnum, hpcd->IN_ep[epnum].xfer_buff);
 149:USB_DEVICE/Target/usbd_conf.c **** }
 150:USB_DEVICE/Target/usbd_conf.c **** 
 151:USB_DEVICE/Target/usbd_conf.c **** /**
 152:USB_DEVICE/Target/usbd_conf.c ****   * @brief  SOF callback.
 153:USB_DEVICE/Target/usbd_conf.c ****   * @param  hpcd: PCD handle
 154:USB_DEVICE/Target/usbd_conf.c ****   * @retval None
 155:USB_DEVICE/Target/usbd_conf.c ****   */
 156:USB_DEVICE/Target/usbd_conf.c **** #if (USE_HAL_PCD_REGISTER_CALLBACKS == 1U)
 157:USB_DEVICE/Target/usbd_conf.c **** static void PCD_SOFCallback(PCD_HandleTypeDef *hpcd)
 158:USB_DEVICE/Target/usbd_conf.c **** #else
 159:USB_DEVICE/Target/usbd_conf.c **** void HAL_PCD_SOFCallback(PCD_HandleTypeDef *hpcd)
 160:USB_DEVICE/Target/usbd_conf.c **** #endif /* USE_HAL_PCD_REGISTER_CALLBACKS */
 161:USB_DEVICE/Target/usbd_conf.c **** {
 162:USB_DEVICE/Target/usbd_conf.c ****   USBD_LL_SOF((USBD_HandleTypeDef*)hpcd->pData);
 163:USB_DEVICE/Target/usbd_conf.c **** }
 164:USB_DEVICE/Target/usbd_conf.c **** 
 165:USB_DEVICE/Target/usbd_conf.c **** /**
 166:USB_DEVICE/Target/usbd_conf.c ****   * @brief  Reset callback.
 167:USB_DEVICE/Target/usbd_conf.c ****   * @param  hpcd: PCD handle
 168:USB_DEVICE/Target/usbd_conf.c ****   * @retval None
 169:USB_DEVICE/Target/usbd_conf.c ****   */
 170:USB_DEVICE/Target/usbd_conf.c **** #if (USE_HAL_PCD_REGISTER_CALLBACKS == 1U)
 171:USB_DEVICE/Target/usbd_conf.c **** static void PCD_ResetCallback(PCD_HandleTypeDef *hpcd)
 172:USB_DEVICE/Target/usbd_conf.c **** #else
 173:USB_DEVICE/Target/usbd_conf.c **** void HAL_PCD_ResetCallback(PCD_HandleTypeDef *hpcd)
 174:USB_DEVICE/Target/usbd_conf.c **** #endif /* USE_HAL_PCD_REGISTER_CALLBACKS */
 175:USB_DEVICE/Target/usbd_conf.c **** {
 176:USB_DEVICE/Target/usbd_conf.c ****   USBD_SpeedTypeDef speed = USBD_SPEED_FULL;
 177:USB_DEVICE/Target/usbd_conf.c **** 
 178:USB_DEVICE/Target/usbd_conf.c ****   if ( hpcd->Init.speed != PCD_SPEED_FULL)
 179:USB_DEVICE/Target/usbd_conf.c ****   {
 180:USB_DEVICE/Target/usbd_conf.c ****     Error_Handler();
 181:USB_DEVICE/Target/usbd_conf.c ****   }
 182:USB_DEVICE/Target/usbd_conf.c ****     /* Set Speed. */
 183:USB_DEVICE/Target/usbd_conf.c ****   USBD_LL_SetSpeed((USBD_HandleTypeDef*)hpcd->pData, speed);
 184:USB_DEVICE/Target/usbd_conf.c **** 
 185:USB_DEVICE/Target/usbd_conf.c ****   /* Reset Device. */
 186:USB_DEVICE/Target/usbd_conf.c ****   USBD_LL_Reset((USBD_HandleTypeDef*)hpcd->pData);
 187:USB_DEVICE/Target/usbd_conf.c **** }
 188:USB_DEVICE/Target/usbd_conf.c **** 
 189:USB_DEVICE/Target/usbd_conf.c **** /**
 190:USB_DEVICE/Target/usbd_conf.c ****   * @brief  Suspend callback.
 191:USB_DEVICE/Target/usbd_conf.c ****   * When Low power mode is enabled the debug cannot be used (IAR, Keil doesn't support it)
 192:USB_DEVICE/Target/usbd_conf.c ****   * @param  hpcd: PCD handle
 193:USB_DEVICE/Target/usbd_conf.c ****   * @retval None
 194:USB_DEVICE/Target/usbd_conf.c ****   */
 195:USB_DEVICE/Target/usbd_conf.c **** #if (USE_HAL_PCD_REGISTER_CALLBACKS == 1U)
 196:USB_DEVICE/Target/usbd_conf.c **** static void PCD_SuspendCallback(PCD_HandleTypeDef *hpcd)
 197:USB_DEVICE/Target/usbd_conf.c **** #else
 198:USB_DEVICE/Target/usbd_conf.c **** void HAL_PCD_SuspendCallback(PCD_HandleTypeDef *hpcd)
 199:USB_DEVICE/Target/usbd_conf.c **** #endif /* USE_HAL_PCD_REGISTER_CALLBACKS */
 200:USB_DEVICE/Target/usbd_conf.c **** {
 201:USB_DEVICE/Target/usbd_conf.c ****   /* Inform USB library that core enters in suspend Mode. */
 202:USB_DEVICE/Target/usbd_conf.c ****   USBD_LL_Suspend((USBD_HandleTypeDef*)hpcd->pData);
 203:USB_DEVICE/Target/usbd_conf.c ****   /* Enter in STOP mode. */
ARM GAS  /var/folders/d0/j8mk8sqj1vq6yyqnh7jfzr040000gn/T//cc2np6Aj.s 			page 5


 204:USB_DEVICE/Target/usbd_conf.c ****   /* USER CODE BEGIN 2 */
 205:USB_DEVICE/Target/usbd_conf.c ****   if (hpcd->Init.low_power_enable)
 206:USB_DEVICE/Target/usbd_conf.c ****   {
 207:USB_DEVICE/Target/usbd_conf.c ****     /* Set SLEEPDEEP bit and SleepOnExit of Cortex System Control Register. */
 208:USB_DEVICE/Target/usbd_conf.c ****     SCB->SCR |= (uint32_t)((uint32_t)(SCB_SCR_SLEEPDEEP_Msk | SCB_SCR_SLEEPONEXIT_Msk));
 209:USB_DEVICE/Target/usbd_conf.c ****   }
 210:USB_DEVICE/Target/usbd_conf.c ****   /* USER CODE END 2 */
 211:USB_DEVICE/Target/usbd_conf.c **** }
 212:USB_DEVICE/Target/usbd_conf.c **** 
 213:USB_DEVICE/Target/usbd_conf.c **** /**
 214:USB_DEVICE/Target/usbd_conf.c ****   * @brief  Resume callback.
 215:USB_DEVICE/Target/usbd_conf.c ****   * When Low power mode is enabled the debug cannot be used (IAR, Keil doesn't support it)
 216:USB_DEVICE/Target/usbd_conf.c ****   * @param  hpcd: PCD handle
 217:USB_DEVICE/Target/usbd_conf.c ****   * @retval None
 218:USB_DEVICE/Target/usbd_conf.c ****   */
 219:USB_DEVICE/Target/usbd_conf.c **** #if (USE_HAL_PCD_REGISTER_CALLBACKS == 1U)
 220:USB_DEVICE/Target/usbd_conf.c **** static void PCD_ResumeCallback(PCD_HandleTypeDef *hpcd)
 221:USB_DEVICE/Target/usbd_conf.c **** #else
 222:USB_DEVICE/Target/usbd_conf.c **** void HAL_PCD_ResumeCallback(PCD_HandleTypeDef *hpcd)
 223:USB_DEVICE/Target/usbd_conf.c **** #endif /* USE_HAL_PCD_REGISTER_CALLBACKS */
 224:USB_DEVICE/Target/usbd_conf.c **** {
 225:USB_DEVICE/Target/usbd_conf.c ****   /* USER CODE BEGIN 3 */
 226:USB_DEVICE/Target/usbd_conf.c **** 
 227:USB_DEVICE/Target/usbd_conf.c ****   /* USER CODE END 3 */
 228:USB_DEVICE/Target/usbd_conf.c ****   USBD_LL_Resume((USBD_HandleTypeDef*)hpcd->pData);
 229:USB_DEVICE/Target/usbd_conf.c **** }
 230:USB_DEVICE/Target/usbd_conf.c **** 
 231:USB_DEVICE/Target/usbd_conf.c **** /**
 232:USB_DEVICE/Target/usbd_conf.c ****   * @brief  ISOOUTIncomplete callback.
 233:USB_DEVICE/Target/usbd_conf.c ****   * @param  hpcd: PCD handle
 234:USB_DEVICE/Target/usbd_conf.c ****   * @param  epnum: Endpoint number
 235:USB_DEVICE/Target/usbd_conf.c ****   * @retval None
 236:USB_DEVICE/Target/usbd_conf.c ****   */
 237:USB_DEVICE/Target/usbd_conf.c **** #if (USE_HAL_PCD_REGISTER_CALLBACKS == 1U)
 238:USB_DEVICE/Target/usbd_conf.c **** static void PCD_ISOOUTIncompleteCallback(PCD_HandleTypeDef *hpcd, uint8_t epnum)
 239:USB_DEVICE/Target/usbd_conf.c **** #else
 240:USB_DEVICE/Target/usbd_conf.c **** void HAL_PCD_ISOOUTIncompleteCallback(PCD_HandleTypeDef *hpcd, uint8_t epnum)
 241:USB_DEVICE/Target/usbd_conf.c **** #endif /* USE_HAL_PCD_REGISTER_CALLBACKS */
 242:USB_DEVICE/Target/usbd_conf.c **** {
 243:USB_DEVICE/Target/usbd_conf.c ****   USBD_LL_IsoOUTIncomplete((USBD_HandleTypeDef*)hpcd->pData, epnum);
 244:USB_DEVICE/Target/usbd_conf.c **** }
 245:USB_DEVICE/Target/usbd_conf.c **** 
 246:USB_DEVICE/Target/usbd_conf.c **** /**
 247:USB_DEVICE/Target/usbd_conf.c ****   * @brief  ISOINIncomplete callback.
 248:USB_DEVICE/Target/usbd_conf.c ****   * @param  hpcd: PCD handle
 249:USB_DEVICE/Target/usbd_conf.c ****   * @param  epnum: Endpoint number
 250:USB_DEVICE/Target/usbd_conf.c ****   * @retval None
 251:USB_DEVICE/Target/usbd_conf.c ****   */
 252:USB_DEVICE/Target/usbd_conf.c **** #if (USE_HAL_PCD_REGISTER_CALLBACKS == 1U)
 253:USB_DEVICE/Target/usbd_conf.c **** static void PCD_ISOINIncompleteCallback(PCD_HandleTypeDef *hpcd, uint8_t epnum)
 254:USB_DEVICE/Target/usbd_conf.c **** #else
 255:USB_DEVICE/Target/usbd_conf.c **** void HAL_PCD_ISOINIncompleteCallback(PCD_HandleTypeDef *hpcd, uint8_t epnum)
 256:USB_DEVICE/Target/usbd_conf.c **** #endif /* USE_HAL_PCD_REGISTER_CALLBACKS */
 257:USB_DEVICE/Target/usbd_conf.c **** {
 258:USB_DEVICE/Target/usbd_conf.c ****   USBD_LL_IsoINIncomplete((USBD_HandleTypeDef*)hpcd->pData, epnum);
 259:USB_DEVICE/Target/usbd_conf.c **** }
 260:USB_DEVICE/Target/usbd_conf.c **** 
ARM GAS  /var/folders/d0/j8mk8sqj1vq6yyqnh7jfzr040000gn/T//cc2np6Aj.s 			page 6


 261:USB_DEVICE/Target/usbd_conf.c **** /**
 262:USB_DEVICE/Target/usbd_conf.c ****   * @brief  Connect callback.
 263:USB_DEVICE/Target/usbd_conf.c ****   * @param  hpcd: PCD handle
 264:USB_DEVICE/Target/usbd_conf.c ****   * @retval None
 265:USB_DEVICE/Target/usbd_conf.c ****   */
 266:USB_DEVICE/Target/usbd_conf.c **** #if (USE_HAL_PCD_REGISTER_CALLBACKS == 1U)
 267:USB_DEVICE/Target/usbd_conf.c **** static void PCD_ConnectCallback(PCD_HandleTypeDef *hpcd)
 268:USB_DEVICE/Target/usbd_conf.c **** #else
 269:USB_DEVICE/Target/usbd_conf.c **** void HAL_PCD_ConnectCallback(PCD_HandleTypeDef *hpcd)
 270:USB_DEVICE/Target/usbd_conf.c **** #endif /* USE_HAL_PCD_REGISTER_CALLBACKS */
 271:USB_DEVICE/Target/usbd_conf.c **** {
 272:USB_DEVICE/Target/usbd_conf.c ****   USBD_LL_DevConnected((USBD_HandleTypeDef*)hpcd->pData);
 273:USB_DEVICE/Target/usbd_conf.c **** }
 274:USB_DEVICE/Target/usbd_conf.c **** 
 275:USB_DEVICE/Target/usbd_conf.c **** /**
 276:USB_DEVICE/Target/usbd_conf.c ****   * @brief  Disconnect callback.
 277:USB_DEVICE/Target/usbd_conf.c ****   * @param  hpcd: PCD handle
 278:USB_DEVICE/Target/usbd_conf.c ****   * @retval None
 279:USB_DEVICE/Target/usbd_conf.c ****   */
 280:USB_DEVICE/Target/usbd_conf.c **** #if (USE_HAL_PCD_REGISTER_CALLBACKS == 1U)
 281:USB_DEVICE/Target/usbd_conf.c **** static void PCD_DisconnectCallback(PCD_HandleTypeDef *hpcd)
 282:USB_DEVICE/Target/usbd_conf.c **** #else
 283:USB_DEVICE/Target/usbd_conf.c **** void HAL_PCD_DisconnectCallback(PCD_HandleTypeDef *hpcd)
 284:USB_DEVICE/Target/usbd_conf.c **** #endif /* USE_HAL_PCD_REGISTER_CALLBACKS */
 285:USB_DEVICE/Target/usbd_conf.c **** {
 286:USB_DEVICE/Target/usbd_conf.c ****   USBD_LL_DevDisconnected((USBD_HandleTypeDef*)hpcd->pData);
 287:USB_DEVICE/Target/usbd_conf.c **** }
 288:USB_DEVICE/Target/usbd_conf.c **** 
 289:USB_DEVICE/Target/usbd_conf.c **** /*******************************************************************************
 290:USB_DEVICE/Target/usbd_conf.c ****                        LL Driver Interface (USB Device Library --> PCD)
 291:USB_DEVICE/Target/usbd_conf.c **** *******************************************************************************/
 292:USB_DEVICE/Target/usbd_conf.c **** 
 293:USB_DEVICE/Target/usbd_conf.c **** /**
 294:USB_DEVICE/Target/usbd_conf.c ****   * @brief  Initializes the low level portion of the device driver.
 295:USB_DEVICE/Target/usbd_conf.c ****   * @param  pdev: Device handle
 296:USB_DEVICE/Target/usbd_conf.c ****   * @retval USBD status
 297:USB_DEVICE/Target/usbd_conf.c ****   */
 298:USB_DEVICE/Target/usbd_conf.c **** USBD_StatusTypeDef USBD_LL_Init(USBD_HandleTypeDef *pdev)
 299:USB_DEVICE/Target/usbd_conf.c **** {
 300:USB_DEVICE/Target/usbd_conf.c ****   /* Init USB Ip. */
 301:USB_DEVICE/Target/usbd_conf.c ****   /* Link the driver to the stack. */
 302:USB_DEVICE/Target/usbd_conf.c ****   hpcd_USB_FS.pData = pdev;
 303:USB_DEVICE/Target/usbd_conf.c ****   pdev->pData = &hpcd_USB_FS;
 304:USB_DEVICE/Target/usbd_conf.c **** 
 305:USB_DEVICE/Target/usbd_conf.c ****   hpcd_USB_FS.Instance = USB;
 306:USB_DEVICE/Target/usbd_conf.c ****   hpcd_USB_FS.Init.dev_endpoints = 8;
 307:USB_DEVICE/Target/usbd_conf.c ****   hpcd_USB_FS.Init.speed = PCD_SPEED_FULL;
 308:USB_DEVICE/Target/usbd_conf.c ****   hpcd_USB_FS.Init.low_power_enable = DISABLE;
 309:USB_DEVICE/Target/usbd_conf.c ****   hpcd_USB_FS.Init.lpm_enable = DISABLE;
 310:USB_DEVICE/Target/usbd_conf.c ****   hpcd_USB_FS.Init.battery_charging_enable = DISABLE;
 311:USB_DEVICE/Target/usbd_conf.c ****   if (HAL_PCD_Init(&hpcd_USB_FS) != HAL_OK)
 312:USB_DEVICE/Target/usbd_conf.c ****   {
 313:USB_DEVICE/Target/usbd_conf.c ****     Error_Handler( );
 314:USB_DEVICE/Target/usbd_conf.c ****   }
 315:USB_DEVICE/Target/usbd_conf.c **** 
 316:USB_DEVICE/Target/usbd_conf.c **** #if (USE_HAL_PCD_REGISTER_CALLBACKS == 1U)
 317:USB_DEVICE/Target/usbd_conf.c ****   /* Register USB PCD CallBacks */
ARM GAS  /var/folders/d0/j8mk8sqj1vq6yyqnh7jfzr040000gn/T//cc2np6Aj.s 			page 7


 318:USB_DEVICE/Target/usbd_conf.c ****   HAL_PCD_RegisterCallback(&hpcd_USB_FS, HAL_PCD_SOF_CB_ID, PCD_SOFCallback);
 319:USB_DEVICE/Target/usbd_conf.c ****   HAL_PCD_RegisterCallback(&hpcd_USB_FS, HAL_PCD_SETUPSTAGE_CB_ID, PCD_SetupStageCallback);
 320:USB_DEVICE/Target/usbd_conf.c ****   HAL_PCD_RegisterCallback(&hpcd_USB_FS, HAL_PCD_RESET_CB_ID, PCD_ResetCallback);
 321:USB_DEVICE/Target/usbd_conf.c ****   HAL_PCD_RegisterCallback(&hpcd_USB_FS, HAL_PCD_SUSPEND_CB_ID, PCD_SuspendCallback);
 322:USB_DEVICE/Target/usbd_conf.c ****   HAL_PCD_RegisterCallback(&hpcd_USB_FS, HAL_PCD_RESUME_CB_ID, PCD_ResumeCallback);
 323:USB_DEVICE/Target/usbd_conf.c ****   HAL_PCD_RegisterCallback(&hpcd_USB_FS, HAL_PCD_CONNECT_CB_ID, PCD_ConnectCallback);
 324:USB_DEVICE/Target/usbd_conf.c ****   HAL_PCD_RegisterCallback(&hpcd_USB_FS, HAL_PCD_DISCONNECT_CB_ID, PCD_DisconnectCallback);
 325:USB_DEVICE/Target/usbd_conf.c **** 
 326:USB_DEVICE/Target/usbd_conf.c ****   HAL_PCD_RegisterDataOutStageCallback(&hpcd_USB_FS, PCD_DataOutStageCallback);
 327:USB_DEVICE/Target/usbd_conf.c ****   HAL_PCD_RegisterDataInStageCallback(&hpcd_USB_FS, PCD_DataInStageCallback);
 328:USB_DEVICE/Target/usbd_conf.c ****   HAL_PCD_RegisterIsoOutIncpltCallback(&hpcd_USB_FS, PCD_ISOOUTIncompleteCallback);
 329:USB_DEVICE/Target/usbd_conf.c ****   HAL_PCD_RegisterIsoInIncpltCallback(&hpcd_USB_FS, PCD_ISOINIncompleteCallback);
 330:USB_DEVICE/Target/usbd_conf.c **** #endif /* USE_HAL_PCD_REGISTER_CALLBACKS */
 331:USB_DEVICE/Target/usbd_conf.c ****   /* USER CODE BEGIN EndPoint_Configuration */
 332:USB_DEVICE/Target/usbd_conf.c ****   HAL_PCDEx_PMAConfig((PCD_HandleTypeDef*)pdev->pData , 0x00 , PCD_SNG_BUF, 0x18);
 333:USB_DEVICE/Target/usbd_conf.c ****   HAL_PCDEx_PMAConfig((PCD_HandleTypeDef*)pdev->pData , 0x80 , PCD_SNG_BUF, 0x58);
 334:USB_DEVICE/Target/usbd_conf.c ****   /* USER CODE END EndPoint_Configuration */
 335:USB_DEVICE/Target/usbd_conf.c ****   return USBD_OK;
 336:USB_DEVICE/Target/usbd_conf.c **** }
 337:USB_DEVICE/Target/usbd_conf.c **** 
 338:USB_DEVICE/Target/usbd_conf.c **** /**
 339:USB_DEVICE/Target/usbd_conf.c ****   * @brief  De-Initializes the low level portion of the device driver.
 340:USB_DEVICE/Target/usbd_conf.c ****   * @param  pdev: Device handle
 341:USB_DEVICE/Target/usbd_conf.c ****   * @retval USBD status
 342:USB_DEVICE/Target/usbd_conf.c ****   */
 343:USB_DEVICE/Target/usbd_conf.c **** USBD_StatusTypeDef USBD_LL_DeInit(USBD_HandleTypeDef *pdev)
 344:USB_DEVICE/Target/usbd_conf.c **** {
 345:USB_DEVICE/Target/usbd_conf.c ****   HAL_StatusTypeDef hal_status = HAL_OK;
 346:USB_DEVICE/Target/usbd_conf.c ****   USBD_StatusTypeDef usb_status = USBD_OK;
 347:USB_DEVICE/Target/usbd_conf.c **** 
 348:USB_DEVICE/Target/usbd_conf.c ****   hal_status = HAL_PCD_DeInit(pdev->pData);
 349:USB_DEVICE/Target/usbd_conf.c **** 
 350:USB_DEVICE/Target/usbd_conf.c ****   usb_status =  USBD_Get_USB_Status(hal_status);
 351:USB_DEVICE/Target/usbd_conf.c **** 
 352:USB_DEVICE/Target/usbd_conf.c ****   return usb_status;
 353:USB_DEVICE/Target/usbd_conf.c **** }
 354:USB_DEVICE/Target/usbd_conf.c **** 
 355:USB_DEVICE/Target/usbd_conf.c **** /**
 356:USB_DEVICE/Target/usbd_conf.c ****   * @brief  Starts the low level portion of the device driver.
 357:USB_DEVICE/Target/usbd_conf.c ****   * @param  pdev: Device handle
 358:USB_DEVICE/Target/usbd_conf.c ****   * @retval USBD status
 359:USB_DEVICE/Target/usbd_conf.c ****   */
 360:USB_DEVICE/Target/usbd_conf.c **** USBD_StatusTypeDef USBD_LL_Start(USBD_HandleTypeDef *pdev)
 361:USB_DEVICE/Target/usbd_conf.c **** {
 362:USB_DEVICE/Target/usbd_conf.c ****   HAL_StatusTypeDef hal_status = HAL_OK;
 363:USB_DEVICE/Target/usbd_conf.c ****   USBD_StatusTypeDef usb_status = USBD_OK;
 364:USB_DEVICE/Target/usbd_conf.c **** 
 365:USB_DEVICE/Target/usbd_conf.c ****   hal_status = HAL_PCD_Start(pdev->pData);
 366:USB_DEVICE/Target/usbd_conf.c **** 
 367:USB_DEVICE/Target/usbd_conf.c ****   usb_status =  USBD_Get_USB_Status(hal_status);
 368:USB_DEVICE/Target/usbd_conf.c **** 
 369:USB_DEVICE/Target/usbd_conf.c ****   return usb_status;
 370:USB_DEVICE/Target/usbd_conf.c **** }
 371:USB_DEVICE/Target/usbd_conf.c **** 
 372:USB_DEVICE/Target/usbd_conf.c **** /**
 373:USB_DEVICE/Target/usbd_conf.c ****   * @brief  Stops the low level portion of the device driver.
 374:USB_DEVICE/Target/usbd_conf.c ****   * @param  pdev: Device handle
ARM GAS  /var/folders/d0/j8mk8sqj1vq6yyqnh7jfzr040000gn/T//cc2np6Aj.s 			page 8


 375:USB_DEVICE/Target/usbd_conf.c ****   * @retval USBD status
 376:USB_DEVICE/Target/usbd_conf.c ****   */
 377:USB_DEVICE/Target/usbd_conf.c **** USBD_StatusTypeDef USBD_LL_Stop(USBD_HandleTypeDef *pdev)
 378:USB_DEVICE/Target/usbd_conf.c **** {
 379:USB_DEVICE/Target/usbd_conf.c ****   HAL_StatusTypeDef hal_status = HAL_OK;
 380:USB_DEVICE/Target/usbd_conf.c ****   USBD_StatusTypeDef usb_status = USBD_OK;
 381:USB_DEVICE/Target/usbd_conf.c **** 
 382:USB_DEVICE/Target/usbd_conf.c ****   hal_status = HAL_PCD_Stop(pdev->pData);
 383:USB_DEVICE/Target/usbd_conf.c **** 
 384:USB_DEVICE/Target/usbd_conf.c ****   usb_status =  USBD_Get_USB_Status(hal_status);
 385:USB_DEVICE/Target/usbd_conf.c **** 
 386:USB_DEVICE/Target/usbd_conf.c ****   return usb_status;
 387:USB_DEVICE/Target/usbd_conf.c **** }
 388:USB_DEVICE/Target/usbd_conf.c **** 
 389:USB_DEVICE/Target/usbd_conf.c **** /**
 390:USB_DEVICE/Target/usbd_conf.c ****   * @brief  Opens an endpoint of the low level driver.
 391:USB_DEVICE/Target/usbd_conf.c ****   * @param  pdev: Device handle
 392:USB_DEVICE/Target/usbd_conf.c ****   * @param  ep_addr: Endpoint number
 393:USB_DEVICE/Target/usbd_conf.c ****   * @param  ep_type: Endpoint type
 394:USB_DEVICE/Target/usbd_conf.c ****   * @param  ep_mps: Endpoint max packet size
 395:USB_DEVICE/Target/usbd_conf.c ****   * @retval USBD status
 396:USB_DEVICE/Target/usbd_conf.c ****   */
 397:USB_DEVICE/Target/usbd_conf.c **** USBD_StatusTypeDef USBD_LL_OpenEP(USBD_HandleTypeDef *pdev, uint8_t ep_addr, uint8_t ep_type, uint1
 398:USB_DEVICE/Target/usbd_conf.c **** {
 399:USB_DEVICE/Target/usbd_conf.c ****   HAL_StatusTypeDef hal_status = HAL_OK;
 400:USB_DEVICE/Target/usbd_conf.c ****   USBD_StatusTypeDef usb_status = USBD_OK;
 401:USB_DEVICE/Target/usbd_conf.c **** 
 402:USB_DEVICE/Target/usbd_conf.c ****   hal_status = HAL_PCD_EP_Open(pdev->pData, ep_addr, ep_mps, ep_type);
 403:USB_DEVICE/Target/usbd_conf.c **** 
 404:USB_DEVICE/Target/usbd_conf.c ****   usb_status =  USBD_Get_USB_Status(hal_status);
 405:USB_DEVICE/Target/usbd_conf.c **** 
 406:USB_DEVICE/Target/usbd_conf.c ****   return usb_status;
 407:USB_DEVICE/Target/usbd_conf.c **** }
 408:USB_DEVICE/Target/usbd_conf.c **** 
 409:USB_DEVICE/Target/usbd_conf.c **** /**
 410:USB_DEVICE/Target/usbd_conf.c ****   * @brief  Closes an endpoint of the low level driver.
 411:USB_DEVICE/Target/usbd_conf.c ****   * @param  pdev: Device handle
 412:USB_DEVICE/Target/usbd_conf.c ****   * @param  ep_addr: Endpoint number
 413:USB_DEVICE/Target/usbd_conf.c ****   * @retval USBD status
 414:USB_DEVICE/Target/usbd_conf.c ****   */
 415:USB_DEVICE/Target/usbd_conf.c **** USBD_StatusTypeDef USBD_LL_CloseEP(USBD_HandleTypeDef *pdev, uint8_t ep_addr)
 416:USB_DEVICE/Target/usbd_conf.c **** {
 417:USB_DEVICE/Target/usbd_conf.c ****   HAL_StatusTypeDef hal_status = HAL_OK;
 418:USB_DEVICE/Target/usbd_conf.c ****   USBD_StatusTypeDef usb_status = USBD_OK;
 419:USB_DEVICE/Target/usbd_conf.c **** 
 420:USB_DEVICE/Target/usbd_conf.c ****   hal_status = HAL_PCD_EP_Close(pdev->pData, ep_addr);
 421:USB_DEVICE/Target/usbd_conf.c **** 
 422:USB_DEVICE/Target/usbd_conf.c ****   usb_status =  USBD_Get_USB_Status(hal_status);
 423:USB_DEVICE/Target/usbd_conf.c **** 
 424:USB_DEVICE/Target/usbd_conf.c ****   return usb_status;
 425:USB_DEVICE/Target/usbd_conf.c **** }
 426:USB_DEVICE/Target/usbd_conf.c **** 
 427:USB_DEVICE/Target/usbd_conf.c **** /**
 428:USB_DEVICE/Target/usbd_conf.c ****   * @brief  Flushes an endpoint of the Low Level Driver.
 429:USB_DEVICE/Target/usbd_conf.c ****   * @param  pdev: Device handle
 430:USB_DEVICE/Target/usbd_conf.c ****   * @param  ep_addr: Endpoint number
 431:USB_DEVICE/Target/usbd_conf.c ****   * @retval USBD status
ARM GAS  /var/folders/d0/j8mk8sqj1vq6yyqnh7jfzr040000gn/T//cc2np6Aj.s 			page 9


 432:USB_DEVICE/Target/usbd_conf.c ****   */
 433:USB_DEVICE/Target/usbd_conf.c **** USBD_StatusTypeDef USBD_LL_FlushEP(USBD_HandleTypeDef *pdev, uint8_t ep_addr)
 434:USB_DEVICE/Target/usbd_conf.c **** {
 435:USB_DEVICE/Target/usbd_conf.c ****   HAL_StatusTypeDef hal_status = HAL_OK;
 436:USB_DEVICE/Target/usbd_conf.c ****   USBD_StatusTypeDef usb_status = USBD_OK;
 437:USB_DEVICE/Target/usbd_conf.c **** 
 438:USB_DEVICE/Target/usbd_conf.c ****   hal_status = HAL_PCD_EP_Flush(pdev->pData, ep_addr);
 439:USB_DEVICE/Target/usbd_conf.c **** 
 440:USB_DEVICE/Target/usbd_conf.c ****   usb_status =  USBD_Get_USB_Status(hal_status);
 441:USB_DEVICE/Target/usbd_conf.c **** 
 442:USB_DEVICE/Target/usbd_conf.c ****   return usb_status;
 443:USB_DEVICE/Target/usbd_conf.c **** }
 444:USB_DEVICE/Target/usbd_conf.c **** 
 445:USB_DEVICE/Target/usbd_conf.c **** /**
 446:USB_DEVICE/Target/usbd_conf.c ****   * @brief  Sets a Stall condition on an endpoint of the Low Level Driver.
 447:USB_DEVICE/Target/usbd_conf.c ****   * @param  pdev: Device handle
 448:USB_DEVICE/Target/usbd_conf.c ****   * @param  ep_addr: Endpoint number
 449:USB_DEVICE/Target/usbd_conf.c ****   * @retval USBD status
 450:USB_DEVICE/Target/usbd_conf.c ****   */
 451:USB_DEVICE/Target/usbd_conf.c **** USBD_StatusTypeDef USBD_LL_StallEP(USBD_HandleTypeDef *pdev, uint8_t ep_addr)
 452:USB_DEVICE/Target/usbd_conf.c **** {
 453:USB_DEVICE/Target/usbd_conf.c ****   HAL_StatusTypeDef hal_status = HAL_OK;
 454:USB_DEVICE/Target/usbd_conf.c ****   USBD_StatusTypeDef usb_status = USBD_OK;
 455:USB_DEVICE/Target/usbd_conf.c **** 
 456:USB_DEVICE/Target/usbd_conf.c ****   hal_status = HAL_PCD_EP_SetStall(pdev->pData, ep_addr);
 457:USB_DEVICE/Target/usbd_conf.c **** 
 458:USB_DEVICE/Target/usbd_conf.c ****   usb_status =  USBD_Get_USB_Status(hal_status);
 459:USB_DEVICE/Target/usbd_conf.c **** 
 460:USB_DEVICE/Target/usbd_conf.c ****   return usb_status;
 461:USB_DEVICE/Target/usbd_conf.c **** }
 462:USB_DEVICE/Target/usbd_conf.c **** 
 463:USB_DEVICE/Target/usbd_conf.c **** /**
 464:USB_DEVICE/Target/usbd_conf.c ****   * @brief  Clears a Stall condition on an endpoint of the Low Level Driver.
 465:USB_DEVICE/Target/usbd_conf.c ****   * @param  pdev: Device handle
 466:USB_DEVICE/Target/usbd_conf.c ****   * @param  ep_addr: Endpoint number
 467:USB_DEVICE/Target/usbd_conf.c ****   * @retval USBD status
 468:USB_DEVICE/Target/usbd_conf.c ****   */
 469:USB_DEVICE/Target/usbd_conf.c **** USBD_StatusTypeDef USBD_LL_ClearStallEP(USBD_HandleTypeDef *pdev, uint8_t ep_addr)
 470:USB_DEVICE/Target/usbd_conf.c **** {
 471:USB_DEVICE/Target/usbd_conf.c ****   HAL_StatusTypeDef hal_status = HAL_OK;
 472:USB_DEVICE/Target/usbd_conf.c ****   USBD_StatusTypeDef usb_status = USBD_OK;
 473:USB_DEVICE/Target/usbd_conf.c **** 
 474:USB_DEVICE/Target/usbd_conf.c ****   hal_status = HAL_PCD_EP_ClrStall(pdev->pData, ep_addr);
 475:USB_DEVICE/Target/usbd_conf.c **** 
 476:USB_DEVICE/Target/usbd_conf.c ****   usb_status =  USBD_Get_USB_Status(hal_status);
 477:USB_DEVICE/Target/usbd_conf.c **** 
 478:USB_DEVICE/Target/usbd_conf.c ****   return usb_status;
 479:USB_DEVICE/Target/usbd_conf.c **** }
 480:USB_DEVICE/Target/usbd_conf.c **** 
 481:USB_DEVICE/Target/usbd_conf.c **** /**
 482:USB_DEVICE/Target/usbd_conf.c ****   * @brief  Returns Stall condition.
 483:USB_DEVICE/Target/usbd_conf.c ****   * @param  pdev: Device handle
 484:USB_DEVICE/Target/usbd_conf.c ****   * @param  ep_addr: Endpoint number
 485:USB_DEVICE/Target/usbd_conf.c ****   * @retval Stall (1: Yes, 0: No)
 486:USB_DEVICE/Target/usbd_conf.c ****   */
 487:USB_DEVICE/Target/usbd_conf.c **** uint8_t USBD_LL_IsStallEP(USBD_HandleTypeDef *pdev, uint8_t ep_addr)
 488:USB_DEVICE/Target/usbd_conf.c **** {
ARM GAS  /var/folders/d0/j8mk8sqj1vq6yyqnh7jfzr040000gn/T//cc2np6Aj.s 			page 10


 489:USB_DEVICE/Target/usbd_conf.c ****   PCD_HandleTypeDef *hpcd = (PCD_HandleTypeDef*) pdev->pData;
 490:USB_DEVICE/Target/usbd_conf.c **** 
 491:USB_DEVICE/Target/usbd_conf.c ****   if((ep_addr & 0x80) == 0x80)
 492:USB_DEVICE/Target/usbd_conf.c ****   {
 493:USB_DEVICE/Target/usbd_conf.c ****     return hpcd->IN_ep[ep_addr & 0x7F].is_stall;
 494:USB_DEVICE/Target/usbd_conf.c ****   }
 495:USB_DEVICE/Target/usbd_conf.c ****   else
 496:USB_DEVICE/Target/usbd_conf.c ****   {
 497:USB_DEVICE/Target/usbd_conf.c ****     return hpcd->OUT_ep[ep_addr & 0x7F].is_stall;
 498:USB_DEVICE/Target/usbd_conf.c ****   }
 499:USB_DEVICE/Target/usbd_conf.c **** }
 500:USB_DEVICE/Target/usbd_conf.c **** 
 501:USB_DEVICE/Target/usbd_conf.c **** /**
 502:USB_DEVICE/Target/usbd_conf.c ****   * @brief  Assigns a USB address to the device.
 503:USB_DEVICE/Target/usbd_conf.c ****   * @param  pdev: Device handle
 504:USB_DEVICE/Target/usbd_conf.c ****   * @param  dev_addr: Device address
 505:USB_DEVICE/Target/usbd_conf.c ****   * @retval USBD status
 506:USB_DEVICE/Target/usbd_conf.c ****   */
 507:USB_DEVICE/Target/usbd_conf.c **** USBD_StatusTypeDef USBD_LL_SetUSBAddress(USBD_HandleTypeDef *pdev, uint8_t dev_addr)
 508:USB_DEVICE/Target/usbd_conf.c **** {
 509:USB_DEVICE/Target/usbd_conf.c ****   HAL_StatusTypeDef hal_status = HAL_OK;
 510:USB_DEVICE/Target/usbd_conf.c ****   USBD_StatusTypeDef usb_status = USBD_OK;
 511:USB_DEVICE/Target/usbd_conf.c **** 
 512:USB_DEVICE/Target/usbd_conf.c ****   hal_status = HAL_PCD_SetAddress(pdev->pData, dev_addr);
 513:USB_DEVICE/Target/usbd_conf.c **** 
 514:USB_DEVICE/Target/usbd_conf.c ****   usb_status =  USBD_Get_USB_Status(hal_status);
 515:USB_DEVICE/Target/usbd_conf.c **** 
 516:USB_DEVICE/Target/usbd_conf.c ****   return usb_status;
 517:USB_DEVICE/Target/usbd_conf.c **** }
 518:USB_DEVICE/Target/usbd_conf.c **** 
 519:USB_DEVICE/Target/usbd_conf.c **** /**
 520:USB_DEVICE/Target/usbd_conf.c ****   * @brief  Transmits data over an endpoint.
 521:USB_DEVICE/Target/usbd_conf.c ****   * @param  pdev: Device handle
 522:USB_DEVICE/Target/usbd_conf.c ****   * @param  ep_addr: Endpoint number
 523:USB_DEVICE/Target/usbd_conf.c ****   * @param  pbuf: Pointer to data to be sent
 524:USB_DEVICE/Target/usbd_conf.c ****   * @param  size: Data size
 525:USB_DEVICE/Target/usbd_conf.c ****   * @retval USBD status
 526:USB_DEVICE/Target/usbd_conf.c ****   */
 527:USB_DEVICE/Target/usbd_conf.c **** USBD_StatusTypeDef USBD_LL_Transmit(USBD_HandleTypeDef *pdev, uint8_t ep_addr, uint8_t *pbuf, uint1
 528:USB_DEVICE/Target/usbd_conf.c **** {
 529:USB_DEVICE/Target/usbd_conf.c ****   HAL_StatusTypeDef hal_status = HAL_OK;
 530:USB_DEVICE/Target/usbd_conf.c ****   USBD_StatusTypeDef usb_status = USBD_OK;
 531:USB_DEVICE/Target/usbd_conf.c **** 
 532:USB_DEVICE/Target/usbd_conf.c ****   hal_status = HAL_PCD_EP_Transmit(pdev->pData, ep_addr, pbuf, size);
 533:USB_DEVICE/Target/usbd_conf.c **** 
 534:USB_DEVICE/Target/usbd_conf.c ****   usb_status =  USBD_Get_USB_Status(hal_status);
 535:USB_DEVICE/Target/usbd_conf.c **** 
 536:USB_DEVICE/Target/usbd_conf.c ****   return usb_status;
 537:USB_DEVICE/Target/usbd_conf.c **** }
 538:USB_DEVICE/Target/usbd_conf.c **** 
 539:USB_DEVICE/Target/usbd_conf.c **** /**
 540:USB_DEVICE/Target/usbd_conf.c ****   * @brief  Prepares an endpoint for reception.
 541:USB_DEVICE/Target/usbd_conf.c ****   * @param  pdev: Device handle
 542:USB_DEVICE/Target/usbd_conf.c ****   * @param  ep_addr: Endpoint number
 543:USB_DEVICE/Target/usbd_conf.c ****   * @param  pbuf: Pointer to data to be received
 544:USB_DEVICE/Target/usbd_conf.c ****   * @param  size: Data size
 545:USB_DEVICE/Target/usbd_conf.c ****   * @retval USBD status
ARM GAS  /var/folders/d0/j8mk8sqj1vq6yyqnh7jfzr040000gn/T//cc2np6Aj.s 			page 11


 546:USB_DEVICE/Target/usbd_conf.c ****   */
 547:USB_DEVICE/Target/usbd_conf.c **** USBD_StatusTypeDef USBD_LL_PrepareReceive(USBD_HandleTypeDef *pdev, uint8_t ep_addr, uint8_t *pbuf,
 548:USB_DEVICE/Target/usbd_conf.c **** {
 549:USB_DEVICE/Target/usbd_conf.c ****   HAL_StatusTypeDef hal_status = HAL_OK;
 550:USB_DEVICE/Target/usbd_conf.c ****   USBD_StatusTypeDef usb_status = USBD_OK;
 551:USB_DEVICE/Target/usbd_conf.c **** 
 552:USB_DEVICE/Target/usbd_conf.c ****   hal_status = HAL_PCD_EP_Receive(pdev->pData, ep_addr, pbuf, size);
 553:USB_DEVICE/Target/usbd_conf.c **** 
 554:USB_DEVICE/Target/usbd_conf.c ****   usb_status =  USBD_Get_USB_Status(hal_status);
 555:USB_DEVICE/Target/usbd_conf.c **** 
 556:USB_DEVICE/Target/usbd_conf.c ****   return usb_status;
 557:USB_DEVICE/Target/usbd_conf.c **** }
 558:USB_DEVICE/Target/usbd_conf.c **** 
 559:USB_DEVICE/Target/usbd_conf.c **** /**
 560:USB_DEVICE/Target/usbd_conf.c ****   * @brief  Returns the last transferred packet size.
 561:USB_DEVICE/Target/usbd_conf.c ****   * @param  pdev: Device handle
 562:USB_DEVICE/Target/usbd_conf.c ****   * @param  ep_addr: Endpoint number
 563:USB_DEVICE/Target/usbd_conf.c ****   * @retval Received Data Size
 564:USB_DEVICE/Target/usbd_conf.c ****   */
 565:USB_DEVICE/Target/usbd_conf.c **** uint32_t USBD_LL_GetRxDataSize(USBD_HandleTypeDef *pdev, uint8_t ep_addr)
 566:USB_DEVICE/Target/usbd_conf.c **** {
 567:USB_DEVICE/Target/usbd_conf.c ****   return HAL_PCD_EP_GetRxCount((PCD_HandleTypeDef*) pdev->pData, ep_addr);
 568:USB_DEVICE/Target/usbd_conf.c **** }
 569:USB_DEVICE/Target/usbd_conf.c **** 
 570:USB_DEVICE/Target/usbd_conf.c **** /**
 571:USB_DEVICE/Target/usbd_conf.c ****   * @brief  Delays routine for the USB device library.
 572:USB_DEVICE/Target/usbd_conf.c ****   * @param  Delay: Delay in ms
 573:USB_DEVICE/Target/usbd_conf.c ****   * @retval None
 574:USB_DEVICE/Target/usbd_conf.c ****   */
 575:USB_DEVICE/Target/usbd_conf.c **** void USBD_LL_Delay(uint32_t Delay)
 576:USB_DEVICE/Target/usbd_conf.c **** {
 577:USB_DEVICE/Target/usbd_conf.c ****   HAL_Delay(Delay);
 578:USB_DEVICE/Target/usbd_conf.c **** }
 579:USB_DEVICE/Target/usbd_conf.c **** 
 580:USB_DEVICE/Target/usbd_conf.c **** /**
 581:USB_DEVICE/Target/usbd_conf.c ****   * @brief  Static single allocation.
 582:USB_DEVICE/Target/usbd_conf.c ****   * @param  size: Size of allocated memory
 583:USB_DEVICE/Target/usbd_conf.c ****   * @retval None
 584:USB_DEVICE/Target/usbd_conf.c ****   */
 585:USB_DEVICE/Target/usbd_conf.c **** void *USBD_static_malloc(uint32_t size)
 586:USB_DEVICE/Target/usbd_conf.c **** {
 587:USB_DEVICE/Target/usbd_conf.c ****   static uint32_t mem[(sizeof(USBD_DFU_HandleTypeDef)/4)+1];/* On 32-bit boundary */
 588:USB_DEVICE/Target/usbd_conf.c ****   return mem;
 589:USB_DEVICE/Target/usbd_conf.c **** }
 590:USB_DEVICE/Target/usbd_conf.c **** 
 591:USB_DEVICE/Target/usbd_conf.c **** /**
 592:USB_DEVICE/Target/usbd_conf.c ****   * @brief  Dummy memory free
 593:USB_DEVICE/Target/usbd_conf.c ****   * @param  p: Pointer to allocated  memory address
 594:USB_DEVICE/Target/usbd_conf.c ****   * @retval None
 595:USB_DEVICE/Target/usbd_conf.c ****   */
 596:USB_DEVICE/Target/usbd_conf.c **** void USBD_static_free(void *p)
 597:USB_DEVICE/Target/usbd_conf.c **** {
 598:USB_DEVICE/Target/usbd_conf.c **** 
 599:USB_DEVICE/Target/usbd_conf.c **** }
 600:USB_DEVICE/Target/usbd_conf.c **** 
 601:USB_DEVICE/Target/usbd_conf.c **** /**
 602:USB_DEVICE/Target/usbd_conf.c ****   * @brief Software Device Connection
ARM GAS  /var/folders/d0/j8mk8sqj1vq6yyqnh7jfzr040000gn/T//cc2np6Aj.s 			page 12


 603:USB_DEVICE/Target/usbd_conf.c ****   * @param hpcd: PCD handle
 604:USB_DEVICE/Target/usbd_conf.c ****   * @param state: Connection state (0: disconnected / 1: connected)
 605:USB_DEVICE/Target/usbd_conf.c ****   * @retval None
 606:USB_DEVICE/Target/usbd_conf.c ****   */
 607:USB_DEVICE/Target/usbd_conf.c **** #if (USE_HAL_PCD_REGISTER_CALLBACKS == 1U)
 608:USB_DEVICE/Target/usbd_conf.c **** static void PCDEx_SetConnectionState(PCD_HandleTypeDef *hpcd, uint8_t state)
 609:USB_DEVICE/Target/usbd_conf.c **** #else
 610:USB_DEVICE/Target/usbd_conf.c **** void HAL_PCDEx_SetConnectionState(PCD_HandleTypeDef *hpcd, uint8_t state)
 611:USB_DEVICE/Target/usbd_conf.c **** #endif /* USE_HAL_PCD_REGISTER_CALLBACKS */
 612:USB_DEVICE/Target/usbd_conf.c **** {
 613:USB_DEVICE/Target/usbd_conf.c ****   /* USER CODE BEGIN 6 */
 614:USB_DEVICE/Target/usbd_conf.c ****   if (state == 1)
 615:USB_DEVICE/Target/usbd_conf.c ****   {
 616:USB_DEVICE/Target/usbd_conf.c ****     /* Configure Low connection state. */
 617:USB_DEVICE/Target/usbd_conf.c **** 
 618:USB_DEVICE/Target/usbd_conf.c ****   }
 619:USB_DEVICE/Target/usbd_conf.c ****   else
 620:USB_DEVICE/Target/usbd_conf.c ****   {
 621:USB_DEVICE/Target/usbd_conf.c ****     /* Configure High connection state. */
 622:USB_DEVICE/Target/usbd_conf.c **** 
 623:USB_DEVICE/Target/usbd_conf.c ****   }
 624:USB_DEVICE/Target/usbd_conf.c ****   /* USER CODE END 6 */
 625:USB_DEVICE/Target/usbd_conf.c **** }
 626:USB_DEVICE/Target/usbd_conf.c **** 
 627:USB_DEVICE/Target/usbd_conf.c **** /**
 628:USB_DEVICE/Target/usbd_conf.c ****   * @brief  Returns the USB status depending on the HAL status:
 629:USB_DEVICE/Target/usbd_conf.c ****   * @param  hal_status: HAL status
 630:USB_DEVICE/Target/usbd_conf.c ****   * @retval USB status
 631:USB_DEVICE/Target/usbd_conf.c ****   */
 632:USB_DEVICE/Target/usbd_conf.c **** USBD_StatusTypeDef USBD_Get_USB_Status(HAL_StatusTypeDef hal_status)
 633:USB_DEVICE/Target/usbd_conf.c **** {
  27              		.loc 1 633 1 view -0
  28              		.cfi_startproc
  29              		@ args = 0, pretend = 0, frame = 0
  30              		@ frame_needed = 0, uses_anonymous_args = 0
  31              		@ link register save eliminated.
 634:USB_DEVICE/Target/usbd_conf.c ****   USBD_StatusTypeDef usb_status = USBD_OK;
  32              		.loc 1 634 3 view .LVU1
 635:USB_DEVICE/Target/usbd_conf.c **** 
 636:USB_DEVICE/Target/usbd_conf.c ****   switch (hal_status)
  33              		.loc 1 636 3 view .LVU2
  34 0000 0228     		cmp	r0, #2
  35 0002 05D8     		bhi	.L6
  36 0004 DFE800F0 		tbb	[pc, r0]
  37              	.L4:
  38 0008 05       		.byte	(.L2-.L4)/2
  39 0009 04       		.byte	(.L6-.L4)/2
  40 000a 02       		.byte	(.L3-.L4)/2
  41 000b 00       		.p2align 1
  42              	.L3:
 637:USB_DEVICE/Target/usbd_conf.c ****   {
 638:USB_DEVICE/Target/usbd_conf.c ****     case HAL_OK :
 639:USB_DEVICE/Target/usbd_conf.c ****       usb_status = USBD_OK;
 640:USB_DEVICE/Target/usbd_conf.c ****     break;
 641:USB_DEVICE/Target/usbd_conf.c ****     case HAL_ERROR :
 642:USB_DEVICE/Target/usbd_conf.c ****       usb_status = USBD_FAIL;
 643:USB_DEVICE/Target/usbd_conf.c ****     break;
ARM GAS  /var/folders/d0/j8mk8sqj1vq6yyqnh7jfzr040000gn/T//cc2np6Aj.s 			page 13


 644:USB_DEVICE/Target/usbd_conf.c ****     case HAL_BUSY :
 645:USB_DEVICE/Target/usbd_conf.c ****       usb_status = USBD_BUSY;
  43              		.loc 1 645 7 view .LVU3
  44              	.LVL1:
 646:USB_DEVICE/Target/usbd_conf.c ****     break;
  45              		.loc 1 646 5 view .LVU4
 645:USB_DEVICE/Target/usbd_conf.c ****     break;
  46              		.loc 1 645 18 is_stmt 0 view .LVU5
  47 000c 0120     		movs	r0, #1
  48              	.LVL2:
  49              		.loc 1 646 5 view .LVU6
  50 000e 7047     		bx	lr
  51              	.LVL3:
  52              	.L6:
 642:USB_DEVICE/Target/usbd_conf.c ****     break;
  53              		.loc 1 642 18 view .LVU7
  54 0010 0220     		movs	r0, #2
  55              	.LVL4:
  56              	.L2:
 647:USB_DEVICE/Target/usbd_conf.c ****     case HAL_TIMEOUT :
 648:USB_DEVICE/Target/usbd_conf.c ****       usb_status = USBD_FAIL;
 649:USB_DEVICE/Target/usbd_conf.c ****     break;
 650:USB_DEVICE/Target/usbd_conf.c ****     default :
 651:USB_DEVICE/Target/usbd_conf.c ****       usb_status = USBD_FAIL;
 652:USB_DEVICE/Target/usbd_conf.c ****     break;
 653:USB_DEVICE/Target/usbd_conf.c ****   }
 654:USB_DEVICE/Target/usbd_conf.c ****   return usb_status;
  57              		.loc 1 654 3 is_stmt 1 view .LVU8
 655:USB_DEVICE/Target/usbd_conf.c **** }
  58              		.loc 1 655 1 is_stmt 0 view .LVU9
  59 0012 7047     		bx	lr
  60              		.cfi_endproc
  61              	.LFE99:
  63              		.section	.text.HAL_PCD_MspInit,"ax",%progbits
  64              		.align	1
  65              		.global	HAL_PCD_MspInit
  66              		.syntax unified
  67              		.thumb
  68              		.thumb_func
  70              	HAL_PCD_MspInit:
  71              	.LVL5:
  72              	.LFB68:
  70:USB_DEVICE/Target/usbd_conf.c ****   if(pcdHandle->Instance==USB)
  73              		.loc 1 70 1 is_stmt 1 view -0
  74              		.cfi_startproc
  75              		@ args = 0, pretend = 0, frame = 8
  76              		@ frame_needed = 0, uses_anonymous_args = 0
  71:USB_DEVICE/Target/usbd_conf.c ****   {
  77              		.loc 1 71 3 view .LVU11
  71:USB_DEVICE/Target/usbd_conf.c ****   {
  78              		.loc 1 71 15 is_stmt 0 view .LVU12
  79 0000 0268     		ldr	r2, [r0]
  71:USB_DEVICE/Target/usbd_conf.c ****   {
  80              		.loc 1 71 5 view .LVU13
  81 0002 0E4B     		ldr	r3, .L14
  82 0004 9A42     		cmp	r2, r3
  83 0006 00D0     		beq	.L13
ARM GAS  /var/folders/d0/j8mk8sqj1vq6yyqnh7jfzr040000gn/T//cc2np6Aj.s 			page 14


  84 0008 7047     		bx	lr
  85              	.L13:
  70:USB_DEVICE/Target/usbd_conf.c ****   if(pcdHandle->Instance==USB)
  86              		.loc 1 70 1 view .LVU14
  87 000a 00B5     		push	{lr}
  88              	.LCFI0:
  89              		.cfi_def_cfa_offset 4
  90              		.cfi_offset 14, -4
  91 000c 83B0     		sub	sp, sp, #12
  92              	.LCFI1:
  93              		.cfi_def_cfa_offset 16
  77:USB_DEVICE/Target/usbd_conf.c **** 
  94              		.loc 1 77 5 is_stmt 1 view .LVU15
  95              	.LBB2:
  77:USB_DEVICE/Target/usbd_conf.c **** 
  96              		.loc 1 77 5 view .LVU16
  77:USB_DEVICE/Target/usbd_conf.c **** 
  97              		.loc 1 77 5 view .LVU17
  98 000e 03F5DA33 		add	r3, r3, #111616
  99 0012 DA69     		ldr	r2, [r3, #28]
 100 0014 42F40002 		orr	r2, r2, #8388608
 101 0018 DA61     		str	r2, [r3, #28]
  77:USB_DEVICE/Target/usbd_conf.c **** 
 102              		.loc 1 77 5 view .LVU18
 103 001a DB69     		ldr	r3, [r3, #28]
 104 001c 03F40003 		and	r3, r3, #8388608
 105 0020 0193     		str	r3, [sp, #4]
  77:USB_DEVICE/Target/usbd_conf.c **** 
 106              		.loc 1 77 5 view .LVU19
 107 0022 019B     		ldr	r3, [sp, #4]
 108              	.LBE2:
  77:USB_DEVICE/Target/usbd_conf.c **** 
 109              		.loc 1 77 5 view .LVU20
  80:USB_DEVICE/Target/usbd_conf.c ****     HAL_NVIC_EnableIRQ(USB_LP_CAN1_RX0_IRQn);
 110              		.loc 1 80 5 view .LVU21
 111 0024 0022     		movs	r2, #0
 112 0026 1146     		mov	r1, r2
 113 0028 1420     		movs	r0, #20
 114              	.LVL6:
  80:USB_DEVICE/Target/usbd_conf.c ****     HAL_NVIC_EnableIRQ(USB_LP_CAN1_RX0_IRQn);
 115              		.loc 1 80 5 is_stmt 0 view .LVU22
 116 002a FFF7FEFF 		bl	HAL_NVIC_SetPriority
 117              	.LVL7:
  81:USB_DEVICE/Target/usbd_conf.c ****   /* USER CODE BEGIN USB_MspInit 1 */
 118              		.loc 1 81 5 is_stmt 1 view .LVU23
 119 002e 1420     		movs	r0, #20
 120 0030 FFF7FEFF 		bl	HAL_NVIC_EnableIRQ
 121              	.LVL8:
  86:USB_DEVICE/Target/usbd_conf.c **** 
 122              		.loc 1 86 1 is_stmt 0 view .LVU24
 123 0034 03B0     		add	sp, sp, #12
 124              	.LCFI2:
 125              		.cfi_def_cfa_offset 4
 126              		@ sp needed
 127 0036 5DF804FB 		ldr	pc, [sp], #4
 128              	.L15:
 129 003a 00BF     		.align	2
ARM GAS  /var/folders/d0/j8mk8sqj1vq6yyqnh7jfzr040000gn/T//cc2np6Aj.s 			page 15


 130              	.L14:
 131 003c 005C0040 		.word	1073765376
 132              		.cfi_endproc
 133              	.LFE68:
 135              		.section	.text.HAL_PCD_MspDeInit,"ax",%progbits
 136              		.align	1
 137              		.global	HAL_PCD_MspDeInit
 138              		.syntax unified
 139              		.thumb
 140              		.thumb_func
 142              	HAL_PCD_MspDeInit:
 143              	.LVL9:
 144              	.LFB69:
  89:USB_DEVICE/Target/usbd_conf.c ****   if(pcdHandle->Instance==USB)
 145              		.loc 1 89 1 is_stmt 1 view -0
 146              		.cfi_startproc
 147              		@ args = 0, pretend = 0, frame = 0
 148              		@ frame_needed = 0, uses_anonymous_args = 0
  89:USB_DEVICE/Target/usbd_conf.c ****   if(pcdHandle->Instance==USB)
 149              		.loc 1 89 1 is_stmt 0 view .LVU26
 150 0000 08B5     		push	{r3, lr}
 151              	.LCFI3:
 152              		.cfi_def_cfa_offset 8
 153              		.cfi_offset 3, -8
 154              		.cfi_offset 14, -4
  90:USB_DEVICE/Target/usbd_conf.c ****   {
 155              		.loc 1 90 3 is_stmt 1 view .LVU27
  90:USB_DEVICE/Target/usbd_conf.c ****   {
 156              		.loc 1 90 15 is_stmt 0 view .LVU28
 157 0002 0268     		ldr	r2, [r0]
  90:USB_DEVICE/Target/usbd_conf.c ****   {
 158              		.loc 1 90 5 view .LVU29
 159 0004 064B     		ldr	r3, .L20
 160 0006 9A42     		cmp	r2, r3
 161 0008 00D0     		beq	.L19
 162              	.LVL10:
 163              	.L16:
 105:USB_DEVICE/Target/usbd_conf.c **** 
 164              		.loc 1 105 1 view .LVU30
 165 000a 08BD     		pop	{r3, pc}
 166              	.LVL11:
 167              	.L19:
  96:USB_DEVICE/Target/usbd_conf.c **** 
 168              		.loc 1 96 5 is_stmt 1 view .LVU31
 169 000c 054A     		ldr	r2, .L20+4
 170 000e D369     		ldr	r3, [r2, #28]
 171 0010 23F40003 		bic	r3, r3, #8388608
 172 0014 D361     		str	r3, [r2, #28]
  99:USB_DEVICE/Target/usbd_conf.c **** 
 173              		.loc 1 99 5 view .LVU32
 174 0016 1420     		movs	r0, #20
 175              	.LVL12:
  99:USB_DEVICE/Target/usbd_conf.c **** 
 176              		.loc 1 99 5 is_stmt 0 view .LVU33
 177 0018 FFF7FEFF 		bl	HAL_NVIC_DisableIRQ
 178              	.LVL13:
 105:USB_DEVICE/Target/usbd_conf.c **** 
ARM GAS  /var/folders/d0/j8mk8sqj1vq6yyqnh7jfzr040000gn/T//cc2np6Aj.s 			page 16


 179              		.loc 1 105 1 view .LVU34
 180 001c F5E7     		b	.L16
 181              	.L21:
 182 001e 00BF     		.align	2
 183              	.L20:
 184 0020 005C0040 		.word	1073765376
 185 0024 00100240 		.word	1073876992
 186              		.cfi_endproc
 187              	.LFE69:
 189              		.section	.text.HAL_PCD_SetupStageCallback,"ax",%progbits
 190              		.align	1
 191              		.global	HAL_PCD_SetupStageCallback
 192              		.syntax unified
 193              		.thumb
 194              		.thumb_func
 196              	HAL_PCD_SetupStageCallback:
 197              	.LVL14:
 198              	.LFB70:
 117:USB_DEVICE/Target/usbd_conf.c ****   USBD_LL_SetupStage((USBD_HandleTypeDef*)hpcd->pData, (uint8_t *)hpcd->Setup);
 199              		.loc 1 117 1 is_stmt 1 view -0
 200              		.cfi_startproc
 201              		@ args = 0, pretend = 0, frame = 0
 202              		@ frame_needed = 0, uses_anonymous_args = 0
 117:USB_DEVICE/Target/usbd_conf.c ****   USBD_LL_SetupStage((USBD_HandleTypeDef*)hpcd->pData, (uint8_t *)hpcd->Setup);
 203              		.loc 1 117 1 is_stmt 0 view .LVU36
 204 0000 08B5     		push	{r3, lr}
 205              	.LCFI4:
 206              		.cfi_def_cfa_offset 8
 207              		.cfi_offset 3, -8
 208              		.cfi_offset 14, -4
 118:USB_DEVICE/Target/usbd_conf.c **** }
 209              		.loc 1 118 3 is_stmt 1 view .LVU37
 210 0002 00F52C71 		add	r1, r0, #688
 211 0006 D0F8EC02 		ldr	r0, [r0, #748]
 212              	.LVL15:
 118:USB_DEVICE/Target/usbd_conf.c **** }
 213              		.loc 1 118 3 is_stmt 0 view .LVU38
 214 000a FFF7FEFF 		bl	USBD_LL_SetupStage
 215              	.LVL16:
 119:USB_DEVICE/Target/usbd_conf.c **** 
 216              		.loc 1 119 1 view .LVU39
 217 000e 08BD     		pop	{r3, pc}
 218              		.cfi_endproc
 219              	.LFE70:
 221              		.section	.text.HAL_PCD_DataOutStageCallback,"ax",%progbits
 222              		.align	1
 223              		.global	HAL_PCD_DataOutStageCallback
 224              		.syntax unified
 225              		.thumb
 226              		.thumb_func
 228              	HAL_PCD_DataOutStageCallback:
 229              	.LVL17:
 230              	.LFB71:
 132:USB_DEVICE/Target/usbd_conf.c ****   USBD_LL_DataOutStage((USBD_HandleTypeDef*)hpcd->pData, epnum, hpcd->OUT_ep[epnum].xfer_buff);
 231              		.loc 1 132 1 is_stmt 1 view -0
 232              		.cfi_startproc
 233              		@ args = 0, pretend = 0, frame = 0
ARM GAS  /var/folders/d0/j8mk8sqj1vq6yyqnh7jfzr040000gn/T//cc2np6Aj.s 			page 17


 234              		@ frame_needed = 0, uses_anonymous_args = 0
 132:USB_DEVICE/Target/usbd_conf.c ****   USBD_LL_DataOutStage((USBD_HandleTypeDef*)hpcd->pData, epnum, hpcd->OUT_ep[epnum].xfer_buff);
 235              		.loc 1 132 1 is_stmt 0 view .LVU41
 236 0000 08B5     		push	{r3, lr}
 237              	.LCFI5:
 238              		.cfi_def_cfa_offset 8
 239              		.cfi_offset 3, -8
 240              		.cfi_offset 14, -4
 133:USB_DEVICE/Target/usbd_conf.c **** }
 241              		.loc 1 133 3 is_stmt 1 view .LVU42
 242 0002 01EB8103 		add	r3, r1, r1, lsl #2
 243 0006 00EBC303 		add	r3, r0, r3, lsl #3
 244 000a D3F87C21 		ldr	r2, [r3, #380]
 245 000e D0F8EC02 		ldr	r0, [r0, #748]
 246              	.LVL18:
 133:USB_DEVICE/Target/usbd_conf.c **** }
 247              		.loc 1 133 3 is_stmt 0 view .LVU43
 248 0012 FFF7FEFF 		bl	USBD_LL_DataOutStage
 249              	.LVL19:
 134:USB_DEVICE/Target/usbd_conf.c **** 
 250              		.loc 1 134 1 view .LVU44
 251 0016 08BD     		pop	{r3, pc}
 252              		.cfi_endproc
 253              	.LFE71:
 255              		.section	.text.HAL_PCD_DataInStageCallback,"ax",%progbits
 256              		.align	1
 257              		.global	HAL_PCD_DataInStageCallback
 258              		.syntax unified
 259              		.thumb
 260              		.thumb_func
 262              	HAL_PCD_DataInStageCallback:
 263              	.LVL20:
 264              	.LFB72:
 147:USB_DEVICE/Target/usbd_conf.c ****   USBD_LL_DataInStage((USBD_HandleTypeDef*)hpcd->pData, epnum, hpcd->IN_ep[epnum].xfer_buff);
 265              		.loc 1 147 1 is_stmt 1 view -0
 266              		.cfi_startproc
 267              		@ args = 0, pretend = 0, frame = 0
 268              		@ frame_needed = 0, uses_anonymous_args = 0
 147:USB_DEVICE/Target/usbd_conf.c ****   USBD_LL_DataInStage((USBD_HandleTypeDef*)hpcd->pData, epnum, hpcd->IN_ep[epnum].xfer_buff);
 269              		.loc 1 147 1 is_stmt 0 view .LVU46
 270 0000 08B5     		push	{r3, lr}
 271              	.LCFI6:
 272              		.cfi_def_cfa_offset 8
 273              		.cfi_offset 3, -8
 274              		.cfi_offset 14, -4
 148:USB_DEVICE/Target/usbd_conf.c **** }
 275              		.loc 1 148 3 is_stmt 1 view .LVU47
 276 0002 01EB8103 		add	r3, r1, r1, lsl #2
 277 0006 00EBC303 		add	r3, r0, r3, lsl #3
 278 000a DA6B     		ldr	r2, [r3, #60]
 279 000c D0F8EC02 		ldr	r0, [r0, #748]
 280              	.LVL21:
 148:USB_DEVICE/Target/usbd_conf.c **** }
 281              		.loc 1 148 3 is_stmt 0 view .LVU48
 282 0010 FFF7FEFF 		bl	USBD_LL_DataInStage
 283              	.LVL22:
 149:USB_DEVICE/Target/usbd_conf.c **** 
ARM GAS  /var/folders/d0/j8mk8sqj1vq6yyqnh7jfzr040000gn/T//cc2np6Aj.s 			page 18


 284              		.loc 1 149 1 view .LVU49
 285 0014 08BD     		pop	{r3, pc}
 286              		.cfi_endproc
 287              	.LFE72:
 289              		.section	.text.HAL_PCD_SOFCallback,"ax",%progbits
 290              		.align	1
 291              		.global	HAL_PCD_SOFCallback
 292              		.syntax unified
 293              		.thumb
 294              		.thumb_func
 296              	HAL_PCD_SOFCallback:
 297              	.LVL23:
 298              	.LFB73:
 161:USB_DEVICE/Target/usbd_conf.c ****   USBD_LL_SOF((USBD_HandleTypeDef*)hpcd->pData);
 299              		.loc 1 161 1 is_stmt 1 view -0
 300              		.cfi_startproc
 301              		@ args = 0, pretend = 0, frame = 0
 302              		@ frame_needed = 0, uses_anonymous_args = 0
 161:USB_DEVICE/Target/usbd_conf.c ****   USBD_LL_SOF((USBD_HandleTypeDef*)hpcd->pData);
 303              		.loc 1 161 1 is_stmt 0 view .LVU51
 304 0000 08B5     		push	{r3, lr}
 305              	.LCFI7:
 306              		.cfi_def_cfa_offset 8
 307              		.cfi_offset 3, -8
 308              		.cfi_offset 14, -4
 162:USB_DEVICE/Target/usbd_conf.c **** }
 309              		.loc 1 162 3 is_stmt 1 view .LVU52
 310 0002 D0F8EC02 		ldr	r0, [r0, #748]
 311              	.LVL24:
 162:USB_DEVICE/Target/usbd_conf.c **** }
 312              		.loc 1 162 3 is_stmt 0 view .LVU53
 313 0006 FFF7FEFF 		bl	USBD_LL_SOF
 314              	.LVL25:
 163:USB_DEVICE/Target/usbd_conf.c **** 
 315              		.loc 1 163 1 view .LVU54
 316 000a 08BD     		pop	{r3, pc}
 317              		.cfi_endproc
 318              	.LFE73:
 320              		.section	.text.HAL_PCD_ResetCallback,"ax",%progbits
 321              		.align	1
 322              		.global	HAL_PCD_ResetCallback
 323              		.syntax unified
 324              		.thumb
 325              		.thumb_func
 327              	HAL_PCD_ResetCallback:
 328              	.LVL26:
 329              	.LFB74:
 175:USB_DEVICE/Target/usbd_conf.c ****   USBD_SpeedTypeDef speed = USBD_SPEED_FULL;
 330              		.loc 1 175 1 is_stmt 1 view -0
 331              		.cfi_startproc
 332              		@ args = 0, pretend = 0, frame = 0
 333              		@ frame_needed = 0, uses_anonymous_args = 0
 175:USB_DEVICE/Target/usbd_conf.c ****   USBD_SpeedTypeDef speed = USBD_SPEED_FULL;
 334              		.loc 1 175 1 is_stmt 0 view .LVU56
 335 0000 10B5     		push	{r4, lr}
 336              	.LCFI8:
 337              		.cfi_def_cfa_offset 8
ARM GAS  /var/folders/d0/j8mk8sqj1vq6yyqnh7jfzr040000gn/T//cc2np6Aj.s 			page 19


 338              		.cfi_offset 4, -8
 339              		.cfi_offset 14, -4
 340 0002 0446     		mov	r4, r0
 176:USB_DEVICE/Target/usbd_conf.c **** 
 341              		.loc 1 176 3 is_stmt 1 view .LVU57
 342              	.LVL27:
 178:USB_DEVICE/Target/usbd_conf.c ****   {
 343              		.loc 1 178 3 view .LVU58
 178:USB_DEVICE/Target/usbd_conf.c ****   {
 344              		.loc 1 178 18 is_stmt 0 view .LVU59
 345 0004 8368     		ldr	r3, [r0, #8]
 178:USB_DEVICE/Target/usbd_conf.c ****   {
 346              		.loc 1 178 6 view .LVU60
 347 0006 022B     		cmp	r3, #2
 348 0008 09D1     		bne	.L33
 349              	.LVL28:
 350              	.L31:
 183:USB_DEVICE/Target/usbd_conf.c **** 
 351              		.loc 1 183 3 is_stmt 1 view .LVU61
 352 000a 0121     		movs	r1, #1
 353 000c D4F8EC02 		ldr	r0, [r4, #748]
 354 0010 FFF7FEFF 		bl	USBD_LL_SetSpeed
 355              	.LVL29:
 186:USB_DEVICE/Target/usbd_conf.c **** }
 356              		.loc 1 186 3 view .LVU62
 357 0014 D4F8EC02 		ldr	r0, [r4, #748]
 358 0018 FFF7FEFF 		bl	USBD_LL_Reset
 359              	.LVL30:
 187:USB_DEVICE/Target/usbd_conf.c **** 
 360              		.loc 1 187 1 is_stmt 0 view .LVU63
 361 001c 10BD     		pop	{r4, pc}
 362              	.LVL31:
 363              	.L33:
 180:USB_DEVICE/Target/usbd_conf.c ****   }
 364              		.loc 1 180 5 is_stmt 1 view .LVU64
 365 001e FFF7FEFF 		bl	Error_Handler
 366              	.LVL32:
 180:USB_DEVICE/Target/usbd_conf.c ****   }
 367              		.loc 1 180 5 is_stmt 0 view .LVU65
 368 0022 F2E7     		b	.L31
 369              		.cfi_endproc
 370              	.LFE74:
 372              		.section	.text.HAL_PCD_SuspendCallback,"ax",%progbits
 373              		.align	1
 374              		.global	HAL_PCD_SuspendCallback
 375              		.syntax unified
 376              		.thumb
 377              		.thumb_func
 379              	HAL_PCD_SuspendCallback:
 380              	.LVL33:
 381              	.LFB75:
 200:USB_DEVICE/Target/usbd_conf.c ****   /* Inform USB library that core enters in suspend Mode. */
 382              		.loc 1 200 1 is_stmt 1 view -0
 383              		.cfi_startproc
 384              		@ args = 0, pretend = 0, frame = 0
 385              		@ frame_needed = 0, uses_anonymous_args = 0
 200:USB_DEVICE/Target/usbd_conf.c ****   /* Inform USB library that core enters in suspend Mode. */
ARM GAS  /var/folders/d0/j8mk8sqj1vq6yyqnh7jfzr040000gn/T//cc2np6Aj.s 			page 20


 386              		.loc 1 200 1 is_stmt 0 view .LVU67
 387 0000 10B5     		push	{r4, lr}
 388              	.LCFI9:
 389              		.cfi_def_cfa_offset 8
 390              		.cfi_offset 4, -8
 391              		.cfi_offset 14, -4
 392 0002 0446     		mov	r4, r0
 202:USB_DEVICE/Target/usbd_conf.c ****   /* Enter in STOP mode. */
 393              		.loc 1 202 3 is_stmt 1 view .LVU68
 394 0004 D0F8EC02 		ldr	r0, [r0, #748]
 395              	.LVL34:
 202:USB_DEVICE/Target/usbd_conf.c ****   /* Enter in STOP mode. */
 396              		.loc 1 202 3 is_stmt 0 view .LVU69
 397 0008 FFF7FEFF 		bl	USBD_LL_Suspend
 398              	.LVL35:
 205:USB_DEVICE/Target/usbd_conf.c ****   {
 399              		.loc 1 205 3 is_stmt 1 view .LVU70
 205:USB_DEVICE/Target/usbd_conf.c ****   {
 400              		.loc 1 205 17 is_stmt 0 view .LVU71
 401 000c A369     		ldr	r3, [r4, #24]
 205:USB_DEVICE/Target/usbd_conf.c ****   {
 402              		.loc 1 205 6 view .LVU72
 403 000e 23B1     		cbz	r3, .L34
 208:USB_DEVICE/Target/usbd_conf.c ****   }
 404              		.loc 1 208 5 is_stmt 1 view .LVU73
 208:USB_DEVICE/Target/usbd_conf.c ****   }
 405              		.loc 1 208 8 is_stmt 0 view .LVU74
 406 0010 024A     		ldr	r2, .L37
 407 0012 1369     		ldr	r3, [r2, #16]
 208:USB_DEVICE/Target/usbd_conf.c ****   }
 408              		.loc 1 208 14 view .LVU75
 409 0014 43F00603 		orr	r3, r3, #6
 410 0018 1361     		str	r3, [r2, #16]
 411              	.L34:
 211:USB_DEVICE/Target/usbd_conf.c **** 
 412              		.loc 1 211 1 view .LVU76
 413 001a 10BD     		pop	{r4, pc}
 414              	.LVL36:
 415              	.L38:
 211:USB_DEVICE/Target/usbd_conf.c **** 
 416              		.loc 1 211 1 view .LVU77
 417              		.align	2
 418              	.L37:
 419 001c 00ED00E0 		.word	-536810240
 420              		.cfi_endproc
 421              	.LFE75:
 423              		.section	.text.HAL_PCD_ResumeCallback,"ax",%progbits
 424              		.align	1
 425              		.global	HAL_PCD_ResumeCallback
 426              		.syntax unified
 427              		.thumb
 428              		.thumb_func
 430              	HAL_PCD_ResumeCallback:
 431              	.LVL37:
 432              	.LFB76:
 224:USB_DEVICE/Target/usbd_conf.c ****   /* USER CODE BEGIN 3 */
 433              		.loc 1 224 1 is_stmt 1 view -0
ARM GAS  /var/folders/d0/j8mk8sqj1vq6yyqnh7jfzr040000gn/T//cc2np6Aj.s 			page 21


 434              		.cfi_startproc
 435              		@ args = 0, pretend = 0, frame = 0
 436              		@ frame_needed = 0, uses_anonymous_args = 0
 224:USB_DEVICE/Target/usbd_conf.c ****   /* USER CODE BEGIN 3 */
 437              		.loc 1 224 1 is_stmt 0 view .LVU79
 438 0000 08B5     		push	{r3, lr}
 439              	.LCFI10:
 440              		.cfi_def_cfa_offset 8
 441              		.cfi_offset 3, -8
 442              		.cfi_offset 14, -4
 228:USB_DEVICE/Target/usbd_conf.c **** }
 443              		.loc 1 228 3 is_stmt 1 view .LVU80
 444 0002 D0F8EC02 		ldr	r0, [r0, #748]
 445              	.LVL38:
 228:USB_DEVICE/Target/usbd_conf.c **** }
 446              		.loc 1 228 3 is_stmt 0 view .LVU81
 447 0006 FFF7FEFF 		bl	USBD_LL_Resume
 448              	.LVL39:
 229:USB_DEVICE/Target/usbd_conf.c **** 
 449              		.loc 1 229 1 view .LVU82
 450 000a 08BD     		pop	{r3, pc}
 451              		.cfi_endproc
 452              	.LFE76:
 454              		.section	.text.HAL_PCD_ISOOUTIncompleteCallback,"ax",%progbits
 455              		.align	1
 456              		.global	HAL_PCD_ISOOUTIncompleteCallback
 457              		.syntax unified
 458              		.thumb
 459              		.thumb_func
 461              	HAL_PCD_ISOOUTIncompleteCallback:
 462              	.LVL40:
 463              	.LFB77:
 242:USB_DEVICE/Target/usbd_conf.c ****   USBD_LL_IsoOUTIncomplete((USBD_HandleTypeDef*)hpcd->pData, epnum);
 464              		.loc 1 242 1 is_stmt 1 view -0
 465              		.cfi_startproc
 466              		@ args = 0, pretend = 0, frame = 0
 467              		@ frame_needed = 0, uses_anonymous_args = 0
 242:USB_DEVICE/Target/usbd_conf.c ****   USBD_LL_IsoOUTIncomplete((USBD_HandleTypeDef*)hpcd->pData, epnum);
 468              		.loc 1 242 1 is_stmt 0 view .LVU84
 469 0000 08B5     		push	{r3, lr}
 470              	.LCFI11:
 471              		.cfi_def_cfa_offset 8
 472              		.cfi_offset 3, -8
 473              		.cfi_offset 14, -4
 243:USB_DEVICE/Target/usbd_conf.c **** }
 474              		.loc 1 243 3 is_stmt 1 view .LVU85
 475 0002 D0F8EC02 		ldr	r0, [r0, #748]
 476              	.LVL41:
 243:USB_DEVICE/Target/usbd_conf.c **** }
 477              		.loc 1 243 3 is_stmt 0 view .LVU86
 478 0006 FFF7FEFF 		bl	USBD_LL_IsoOUTIncomplete
 479              	.LVL42:
 244:USB_DEVICE/Target/usbd_conf.c **** 
 480              		.loc 1 244 1 view .LVU87
 481 000a 08BD     		pop	{r3, pc}
 482              		.cfi_endproc
 483              	.LFE77:
ARM GAS  /var/folders/d0/j8mk8sqj1vq6yyqnh7jfzr040000gn/T//cc2np6Aj.s 			page 22


 485              		.section	.text.HAL_PCD_ISOINIncompleteCallback,"ax",%progbits
 486              		.align	1
 487              		.global	HAL_PCD_ISOINIncompleteCallback
 488              		.syntax unified
 489              		.thumb
 490              		.thumb_func
 492              	HAL_PCD_ISOINIncompleteCallback:
 493              	.LVL43:
 494              	.LFB78:
 257:USB_DEVICE/Target/usbd_conf.c ****   USBD_LL_IsoINIncomplete((USBD_HandleTypeDef*)hpcd->pData, epnum);
 495              		.loc 1 257 1 is_stmt 1 view -0
 496              		.cfi_startproc
 497              		@ args = 0, pretend = 0, frame = 0
 498              		@ frame_needed = 0, uses_anonymous_args = 0
 257:USB_DEVICE/Target/usbd_conf.c ****   USBD_LL_IsoINIncomplete((USBD_HandleTypeDef*)hpcd->pData, epnum);
 499              		.loc 1 257 1 is_stmt 0 view .LVU89
 500 0000 08B5     		push	{r3, lr}
 501              	.LCFI12:
 502              		.cfi_def_cfa_offset 8
 503              		.cfi_offset 3, -8
 504              		.cfi_offset 14, -4
 258:USB_DEVICE/Target/usbd_conf.c **** }
 505              		.loc 1 258 3 is_stmt 1 view .LVU90
 506 0002 D0F8EC02 		ldr	r0, [r0, #748]
 507              	.LVL44:
 258:USB_DEVICE/Target/usbd_conf.c **** }
 508              		.loc 1 258 3 is_stmt 0 view .LVU91
 509 0006 FFF7FEFF 		bl	USBD_LL_IsoINIncomplete
 510              	.LVL45:
 259:USB_DEVICE/Target/usbd_conf.c **** 
 511              		.loc 1 259 1 view .LVU92
 512 000a 08BD     		pop	{r3, pc}
 513              		.cfi_endproc
 514              	.LFE78:
 516              		.section	.text.HAL_PCD_ConnectCallback,"ax",%progbits
 517              		.align	1
 518              		.global	HAL_PCD_ConnectCallback
 519              		.syntax unified
 520              		.thumb
 521              		.thumb_func
 523              	HAL_PCD_ConnectCallback:
 524              	.LVL46:
 525              	.LFB79:
 271:USB_DEVICE/Target/usbd_conf.c ****   USBD_LL_DevConnected((USBD_HandleTypeDef*)hpcd->pData);
 526              		.loc 1 271 1 is_stmt 1 view -0
 527              		.cfi_startproc
 528              		@ args = 0, pretend = 0, frame = 0
 529              		@ frame_needed = 0, uses_anonymous_args = 0
 271:USB_DEVICE/Target/usbd_conf.c ****   USBD_LL_DevConnected((USBD_HandleTypeDef*)hpcd->pData);
 530              		.loc 1 271 1 is_stmt 0 view .LVU94
 531 0000 08B5     		push	{r3, lr}
 532              	.LCFI13:
 533              		.cfi_def_cfa_offset 8
 534              		.cfi_offset 3, -8
 535              		.cfi_offset 14, -4
 272:USB_DEVICE/Target/usbd_conf.c **** }
 536              		.loc 1 272 3 is_stmt 1 view .LVU95
ARM GAS  /var/folders/d0/j8mk8sqj1vq6yyqnh7jfzr040000gn/T//cc2np6Aj.s 			page 23


 537 0002 D0F8EC02 		ldr	r0, [r0, #748]
 538              	.LVL47:
 272:USB_DEVICE/Target/usbd_conf.c **** }
 539              		.loc 1 272 3 is_stmt 0 view .LVU96
 540 0006 FFF7FEFF 		bl	USBD_LL_DevConnected
 541              	.LVL48:
 273:USB_DEVICE/Target/usbd_conf.c **** 
 542              		.loc 1 273 1 view .LVU97
 543 000a 08BD     		pop	{r3, pc}
 544              		.cfi_endproc
 545              	.LFE79:
 547              		.section	.text.HAL_PCD_DisconnectCallback,"ax",%progbits
 548              		.align	1
 549              		.global	HAL_PCD_DisconnectCallback
 550              		.syntax unified
 551              		.thumb
 552              		.thumb_func
 554              	HAL_PCD_DisconnectCallback:
 555              	.LVL49:
 556              	.LFB80:
 285:USB_DEVICE/Target/usbd_conf.c ****   USBD_LL_DevDisconnected((USBD_HandleTypeDef*)hpcd->pData);
 557              		.loc 1 285 1 is_stmt 1 view -0
 558              		.cfi_startproc
 559              		@ args = 0, pretend = 0, frame = 0
 560              		@ frame_needed = 0, uses_anonymous_args = 0
 285:USB_DEVICE/Target/usbd_conf.c ****   USBD_LL_DevDisconnected((USBD_HandleTypeDef*)hpcd->pData);
 561              		.loc 1 285 1 is_stmt 0 view .LVU99
 562 0000 08B5     		push	{r3, lr}
 563              	.LCFI14:
 564              		.cfi_def_cfa_offset 8
 565              		.cfi_offset 3, -8
 566              		.cfi_offset 14, -4
 286:USB_DEVICE/Target/usbd_conf.c **** }
 567              		.loc 1 286 3 is_stmt 1 view .LVU100
 568 0002 D0F8EC02 		ldr	r0, [r0, #748]
 569              	.LVL50:
 286:USB_DEVICE/Target/usbd_conf.c **** }
 570              		.loc 1 286 3 is_stmt 0 view .LVU101
 571 0006 FFF7FEFF 		bl	USBD_LL_DevDisconnected
 572              	.LVL51:
 287:USB_DEVICE/Target/usbd_conf.c **** 
 573              		.loc 1 287 1 view .LVU102
 574 000a 08BD     		pop	{r3, pc}
 575              		.cfi_endproc
 576              	.LFE80:
 578              		.section	.text.USBD_LL_Init,"ax",%progbits
 579              		.align	1
 580              		.global	USBD_LL_Init
 581              		.syntax unified
 582              		.thumb
 583              		.thumb_func
 585              	USBD_LL_Init:
 586              	.LVL52:
 587              	.LFB81:
 299:USB_DEVICE/Target/usbd_conf.c ****   /* Init USB Ip. */
 588              		.loc 1 299 1 is_stmt 1 view -0
 589              		.cfi_startproc
ARM GAS  /var/folders/d0/j8mk8sqj1vq6yyqnh7jfzr040000gn/T//cc2np6Aj.s 			page 24


 590              		@ args = 0, pretend = 0, frame = 0
 591              		@ frame_needed = 0, uses_anonymous_args = 0
 299:USB_DEVICE/Target/usbd_conf.c ****   /* Init USB Ip. */
 592              		.loc 1 299 1 is_stmt 0 view .LVU104
 593 0000 10B5     		push	{r4, lr}
 594              	.LCFI15:
 595              		.cfi_def_cfa_offset 8
 596              		.cfi_offset 4, -8
 597              		.cfi_offset 14, -4
 598 0002 0446     		mov	r4, r0
 302:USB_DEVICE/Target/usbd_conf.c ****   pdev->pData = &hpcd_USB_FS;
 599              		.loc 1 302 3 is_stmt 1 view .LVU105
 302:USB_DEVICE/Target/usbd_conf.c ****   pdev->pData = &hpcd_USB_FS;
 600              		.loc 1 302 21 is_stmt 0 view .LVU106
 601 0004 1248     		ldr	r0, .L53
 602              	.LVL53:
 302:USB_DEVICE/Target/usbd_conf.c ****   pdev->pData = &hpcd_USB_FS;
 603              		.loc 1 302 21 view .LVU107
 604 0006 C0F8EC42 		str	r4, [r0, #748]
 303:USB_DEVICE/Target/usbd_conf.c **** 
 605              		.loc 1 303 3 is_stmt 1 view .LVU108
 303:USB_DEVICE/Target/usbd_conf.c **** 
 606              		.loc 1 303 15 is_stmt 0 view .LVU109
 607 000a C4F8C002 		str	r0, [r4, #704]
 305:USB_DEVICE/Target/usbd_conf.c ****   hpcd_USB_FS.Init.dev_endpoints = 8;
 608              		.loc 1 305 3 is_stmt 1 view .LVU110
 305:USB_DEVICE/Target/usbd_conf.c ****   hpcd_USB_FS.Init.dev_endpoints = 8;
 609              		.loc 1 305 24 is_stmt 0 view .LVU111
 610 000e 114B     		ldr	r3, .L53+4
 611 0010 0360     		str	r3, [r0]
 306:USB_DEVICE/Target/usbd_conf.c ****   hpcd_USB_FS.Init.speed = PCD_SPEED_FULL;
 612              		.loc 1 306 3 is_stmt 1 view .LVU112
 306:USB_DEVICE/Target/usbd_conf.c ****   hpcd_USB_FS.Init.speed = PCD_SPEED_FULL;
 613              		.loc 1 306 34 is_stmt 0 view .LVU113
 614 0012 0823     		movs	r3, #8
 615 0014 4360     		str	r3, [r0, #4]
 307:USB_DEVICE/Target/usbd_conf.c ****   hpcd_USB_FS.Init.low_power_enable = DISABLE;
 616              		.loc 1 307 3 is_stmt 1 view .LVU114
 307:USB_DEVICE/Target/usbd_conf.c ****   hpcd_USB_FS.Init.low_power_enable = DISABLE;
 617              		.loc 1 307 26 is_stmt 0 view .LVU115
 618 0016 0223     		movs	r3, #2
 619 0018 8360     		str	r3, [r0, #8]
 308:USB_DEVICE/Target/usbd_conf.c ****   hpcd_USB_FS.Init.lpm_enable = DISABLE;
 620              		.loc 1 308 3 is_stmt 1 view .LVU116
 308:USB_DEVICE/Target/usbd_conf.c ****   hpcd_USB_FS.Init.lpm_enable = DISABLE;
 621              		.loc 1 308 37 is_stmt 0 view .LVU117
 622 001a 0023     		movs	r3, #0
 623 001c 8361     		str	r3, [r0, #24]
 309:USB_DEVICE/Target/usbd_conf.c ****   hpcd_USB_FS.Init.battery_charging_enable = DISABLE;
 624              		.loc 1 309 3 is_stmt 1 view .LVU118
 309:USB_DEVICE/Target/usbd_conf.c ****   hpcd_USB_FS.Init.battery_charging_enable = DISABLE;
 625              		.loc 1 309 31 is_stmt 0 view .LVU119
 626 001e C361     		str	r3, [r0, #28]
 310:USB_DEVICE/Target/usbd_conf.c ****   if (HAL_PCD_Init(&hpcd_USB_FS) != HAL_OK)
 627              		.loc 1 310 3 is_stmt 1 view .LVU120
 310:USB_DEVICE/Target/usbd_conf.c ****   if (HAL_PCD_Init(&hpcd_USB_FS) != HAL_OK)
 628              		.loc 1 310 44 is_stmt 0 view .LVU121
ARM GAS  /var/folders/d0/j8mk8sqj1vq6yyqnh7jfzr040000gn/T//cc2np6Aj.s 			page 25


 629 0020 0362     		str	r3, [r0, #32]
 311:USB_DEVICE/Target/usbd_conf.c ****   {
 630              		.loc 1 311 3 is_stmt 1 view .LVU122
 311:USB_DEVICE/Target/usbd_conf.c ****   {
 631              		.loc 1 311 7 is_stmt 0 view .LVU123
 632 0022 FFF7FEFF 		bl	HAL_PCD_Init
 633              	.LVL54:
 311:USB_DEVICE/Target/usbd_conf.c ****   {
 634              		.loc 1 311 6 view .LVU124
 635 0026 78B9     		cbnz	r0, .L52
 636              	.L50:
 332:USB_DEVICE/Target/usbd_conf.c ****   HAL_PCDEx_PMAConfig((PCD_HandleTypeDef*)pdev->pData , 0x80 , PCD_SNG_BUF, 0x58);
 637              		.loc 1 332 3 is_stmt 1 view .LVU125
 638 0028 1823     		movs	r3, #24
 639 002a 0022     		movs	r2, #0
 640 002c 1146     		mov	r1, r2
 641 002e D4F8C002 		ldr	r0, [r4, #704]
 642 0032 FFF7FEFF 		bl	HAL_PCDEx_PMAConfig
 643              	.LVL55:
 333:USB_DEVICE/Target/usbd_conf.c ****   /* USER CODE END EndPoint_Configuration */
 644              		.loc 1 333 3 view .LVU126
 645 0036 5823     		movs	r3, #88
 646 0038 0022     		movs	r2, #0
 647 003a 8021     		movs	r1, #128
 648 003c D4F8C002 		ldr	r0, [r4, #704]
 649 0040 FFF7FEFF 		bl	HAL_PCDEx_PMAConfig
 650              	.LVL56:
 335:USB_DEVICE/Target/usbd_conf.c **** }
 651              		.loc 1 335 3 view .LVU127
 336:USB_DEVICE/Target/usbd_conf.c **** 
 652              		.loc 1 336 1 is_stmt 0 view .LVU128
 653 0044 0020     		movs	r0, #0
 654 0046 10BD     		pop	{r4, pc}
 655              	.LVL57:
 656              	.L52:
 313:USB_DEVICE/Target/usbd_conf.c ****   }
 657              		.loc 1 313 5 is_stmt 1 view .LVU129
 658 0048 FFF7FEFF 		bl	Error_Handler
 659              	.LVL58:
 660 004c ECE7     		b	.L50
 661              	.L54:
 662 004e 00BF     		.align	2
 663              	.L53:
 664 0050 00000000 		.word	hpcd_USB_FS
 665 0054 005C0040 		.word	1073765376
 666              		.cfi_endproc
 667              	.LFE81:
 669              		.section	.text.USBD_LL_DeInit,"ax",%progbits
 670              		.align	1
 671              		.global	USBD_LL_DeInit
 672              		.syntax unified
 673              		.thumb
 674              		.thumb_func
 676              	USBD_LL_DeInit:
 677              	.LVL59:
 678              	.LFB82:
 344:USB_DEVICE/Target/usbd_conf.c ****   HAL_StatusTypeDef hal_status = HAL_OK;
ARM GAS  /var/folders/d0/j8mk8sqj1vq6yyqnh7jfzr040000gn/T//cc2np6Aj.s 			page 26


 679              		.loc 1 344 1 view -0
 680              		.cfi_startproc
 681              		@ args = 0, pretend = 0, frame = 0
 682              		@ frame_needed = 0, uses_anonymous_args = 0
 344:USB_DEVICE/Target/usbd_conf.c ****   HAL_StatusTypeDef hal_status = HAL_OK;
 683              		.loc 1 344 1 is_stmt 0 view .LVU131
 684 0000 08B5     		push	{r3, lr}
 685              	.LCFI16:
 686              		.cfi_def_cfa_offset 8
 687              		.cfi_offset 3, -8
 688              		.cfi_offset 14, -4
 345:USB_DEVICE/Target/usbd_conf.c ****   USBD_StatusTypeDef usb_status = USBD_OK;
 689              		.loc 1 345 3 is_stmt 1 view .LVU132
 690              	.LVL60:
 346:USB_DEVICE/Target/usbd_conf.c **** 
 691              		.loc 1 346 3 view .LVU133
 348:USB_DEVICE/Target/usbd_conf.c **** 
 692              		.loc 1 348 3 view .LVU134
 348:USB_DEVICE/Target/usbd_conf.c **** 
 693              		.loc 1 348 16 is_stmt 0 view .LVU135
 694 0002 D0F8C002 		ldr	r0, [r0, #704]
 695              	.LVL61:
 348:USB_DEVICE/Target/usbd_conf.c **** 
 696              		.loc 1 348 16 view .LVU136
 697 0006 FFF7FEFF 		bl	HAL_PCD_DeInit
 698              	.LVL62:
 350:USB_DEVICE/Target/usbd_conf.c **** 
 699              		.loc 1 350 3 is_stmt 1 view .LVU137
 350:USB_DEVICE/Target/usbd_conf.c **** 
 700              		.loc 1 350 17 is_stmt 0 view .LVU138
 701 000a FFF7FEFF 		bl	USBD_Get_USB_Status
 702              	.LVL63:
 352:USB_DEVICE/Target/usbd_conf.c **** }
 703              		.loc 1 352 3 is_stmt 1 view .LVU139
 353:USB_DEVICE/Target/usbd_conf.c **** 
 704              		.loc 1 353 1 is_stmt 0 view .LVU140
 705 000e 08BD     		pop	{r3, pc}
 706              		.cfi_endproc
 707              	.LFE82:
 709              		.section	.text.USBD_LL_Start,"ax",%progbits
 710              		.align	1
 711              		.global	USBD_LL_Start
 712              		.syntax unified
 713              		.thumb
 714              		.thumb_func
 716              	USBD_LL_Start:
 717              	.LVL64:
 718              	.LFB83:
 361:USB_DEVICE/Target/usbd_conf.c ****   HAL_StatusTypeDef hal_status = HAL_OK;
 719              		.loc 1 361 1 is_stmt 1 view -0
 720              		.cfi_startproc
 721              		@ args = 0, pretend = 0, frame = 0
 722              		@ frame_needed = 0, uses_anonymous_args = 0
 361:USB_DEVICE/Target/usbd_conf.c ****   HAL_StatusTypeDef hal_status = HAL_OK;
 723              		.loc 1 361 1 is_stmt 0 view .LVU142
 724 0000 08B5     		push	{r3, lr}
 725              	.LCFI17:
ARM GAS  /var/folders/d0/j8mk8sqj1vq6yyqnh7jfzr040000gn/T//cc2np6Aj.s 			page 27


 726              		.cfi_def_cfa_offset 8
 727              		.cfi_offset 3, -8
 728              		.cfi_offset 14, -4
 362:USB_DEVICE/Target/usbd_conf.c ****   USBD_StatusTypeDef usb_status = USBD_OK;
 729              		.loc 1 362 3 is_stmt 1 view .LVU143
 730              	.LVL65:
 363:USB_DEVICE/Target/usbd_conf.c **** 
 731              		.loc 1 363 3 view .LVU144
 365:USB_DEVICE/Target/usbd_conf.c **** 
 732              		.loc 1 365 3 view .LVU145
 365:USB_DEVICE/Target/usbd_conf.c **** 
 733              		.loc 1 365 16 is_stmt 0 view .LVU146
 734 0002 D0F8C002 		ldr	r0, [r0, #704]
 735              	.LVL66:
 365:USB_DEVICE/Target/usbd_conf.c **** 
 736              		.loc 1 365 16 view .LVU147
 737 0006 FFF7FEFF 		bl	HAL_PCD_Start
 738              	.LVL67:
 367:USB_DEVICE/Target/usbd_conf.c **** 
 739              		.loc 1 367 3 is_stmt 1 view .LVU148
 367:USB_DEVICE/Target/usbd_conf.c **** 
 740              		.loc 1 367 17 is_stmt 0 view .LVU149
 741 000a FFF7FEFF 		bl	USBD_Get_USB_Status
 742              	.LVL68:
 369:USB_DEVICE/Target/usbd_conf.c **** }
 743              		.loc 1 369 3 is_stmt 1 view .LVU150
 370:USB_DEVICE/Target/usbd_conf.c **** 
 744              		.loc 1 370 1 is_stmt 0 view .LVU151
 745 000e 08BD     		pop	{r3, pc}
 746              		.cfi_endproc
 747              	.LFE83:
 749              		.section	.text.USBD_LL_Stop,"ax",%progbits
 750              		.align	1
 751              		.global	USBD_LL_Stop
 752              		.syntax unified
 753              		.thumb
 754              		.thumb_func
 756              	USBD_LL_Stop:
 757              	.LVL69:
 758              	.LFB84:
 378:USB_DEVICE/Target/usbd_conf.c ****   HAL_StatusTypeDef hal_status = HAL_OK;
 759              		.loc 1 378 1 is_stmt 1 view -0
 760              		.cfi_startproc
 761              		@ args = 0, pretend = 0, frame = 0
 762              		@ frame_needed = 0, uses_anonymous_args = 0
 378:USB_DEVICE/Target/usbd_conf.c ****   HAL_StatusTypeDef hal_status = HAL_OK;
 763              		.loc 1 378 1 is_stmt 0 view .LVU153
 764 0000 08B5     		push	{r3, lr}
 765              	.LCFI18:
 766              		.cfi_def_cfa_offset 8
 767              		.cfi_offset 3, -8
 768              		.cfi_offset 14, -4
 379:USB_DEVICE/Target/usbd_conf.c ****   USBD_StatusTypeDef usb_status = USBD_OK;
 769              		.loc 1 379 3 is_stmt 1 view .LVU154
 770              	.LVL70:
 380:USB_DEVICE/Target/usbd_conf.c **** 
 771              		.loc 1 380 3 view .LVU155
ARM GAS  /var/folders/d0/j8mk8sqj1vq6yyqnh7jfzr040000gn/T//cc2np6Aj.s 			page 28


 382:USB_DEVICE/Target/usbd_conf.c **** 
 772              		.loc 1 382 3 view .LVU156
 382:USB_DEVICE/Target/usbd_conf.c **** 
 773              		.loc 1 382 16 is_stmt 0 view .LVU157
 774 0002 D0F8C002 		ldr	r0, [r0, #704]
 775              	.LVL71:
 382:USB_DEVICE/Target/usbd_conf.c **** 
 776              		.loc 1 382 16 view .LVU158
 777 0006 FFF7FEFF 		bl	HAL_PCD_Stop
 778              	.LVL72:
 384:USB_DEVICE/Target/usbd_conf.c **** 
 779              		.loc 1 384 3 is_stmt 1 view .LVU159
 384:USB_DEVICE/Target/usbd_conf.c **** 
 780              		.loc 1 384 17 is_stmt 0 view .LVU160
 781 000a FFF7FEFF 		bl	USBD_Get_USB_Status
 782              	.LVL73:
 386:USB_DEVICE/Target/usbd_conf.c **** }
 783              		.loc 1 386 3 is_stmt 1 view .LVU161
 387:USB_DEVICE/Target/usbd_conf.c **** 
 784              		.loc 1 387 1 is_stmt 0 view .LVU162
 785 000e 08BD     		pop	{r3, pc}
 786              		.cfi_endproc
 787              	.LFE84:
 789              		.section	.text.USBD_LL_OpenEP,"ax",%progbits
 790              		.align	1
 791              		.global	USBD_LL_OpenEP
 792              		.syntax unified
 793              		.thumb
 794              		.thumb_func
 796              	USBD_LL_OpenEP:
 797              	.LVL74:
 798              	.LFB85:
 398:USB_DEVICE/Target/usbd_conf.c ****   HAL_StatusTypeDef hal_status = HAL_OK;
 799              		.loc 1 398 1 is_stmt 1 view -0
 800              		.cfi_startproc
 801              		@ args = 0, pretend = 0, frame = 0
 802              		@ frame_needed = 0, uses_anonymous_args = 0
 398:USB_DEVICE/Target/usbd_conf.c ****   HAL_StatusTypeDef hal_status = HAL_OK;
 803              		.loc 1 398 1 is_stmt 0 view .LVU164
 804 0000 08B5     		push	{r3, lr}
 805              	.LCFI19:
 806              		.cfi_def_cfa_offset 8
 807              		.cfi_offset 3, -8
 808              		.cfi_offset 14, -4
 809 0002 9446     		mov	ip, r2
 810 0004 1A46     		mov	r2, r3
 811              	.LVL75:
 399:USB_DEVICE/Target/usbd_conf.c ****   USBD_StatusTypeDef usb_status = USBD_OK;
 812              		.loc 1 399 3 is_stmt 1 view .LVU165
 400:USB_DEVICE/Target/usbd_conf.c **** 
 813              		.loc 1 400 3 view .LVU166
 402:USB_DEVICE/Target/usbd_conf.c **** 
 814              		.loc 1 402 3 view .LVU167
 402:USB_DEVICE/Target/usbd_conf.c **** 
 815              		.loc 1 402 16 is_stmt 0 view .LVU168
 816 0006 6346     		mov	r3, ip
 817              	.LVL76:
ARM GAS  /var/folders/d0/j8mk8sqj1vq6yyqnh7jfzr040000gn/T//cc2np6Aj.s 			page 29


 402:USB_DEVICE/Target/usbd_conf.c **** 
 818              		.loc 1 402 16 view .LVU169
 819 0008 D0F8C002 		ldr	r0, [r0, #704]
 820              	.LVL77:
 402:USB_DEVICE/Target/usbd_conf.c **** 
 821              		.loc 1 402 16 view .LVU170
 822 000c FFF7FEFF 		bl	HAL_PCD_EP_Open
 823              	.LVL78:
 404:USB_DEVICE/Target/usbd_conf.c **** 
 824              		.loc 1 404 3 is_stmt 1 view .LVU171
 404:USB_DEVICE/Target/usbd_conf.c **** 
 825              		.loc 1 404 17 is_stmt 0 view .LVU172
 826 0010 FFF7FEFF 		bl	USBD_Get_USB_Status
 827              	.LVL79:
 406:USB_DEVICE/Target/usbd_conf.c **** }
 828              		.loc 1 406 3 is_stmt 1 view .LVU173
 407:USB_DEVICE/Target/usbd_conf.c **** 
 829              		.loc 1 407 1 is_stmt 0 view .LVU174
 830 0014 08BD     		pop	{r3, pc}
 831              		.cfi_endproc
 832              	.LFE85:
 834              		.section	.text.USBD_LL_CloseEP,"ax",%progbits
 835              		.align	1
 836              		.global	USBD_LL_CloseEP
 837              		.syntax unified
 838              		.thumb
 839              		.thumb_func
 841              	USBD_LL_CloseEP:
 842              	.LVL80:
 843              	.LFB86:
 416:USB_DEVICE/Target/usbd_conf.c ****   HAL_StatusTypeDef hal_status = HAL_OK;
 844              		.loc 1 416 1 is_stmt 1 view -0
 845              		.cfi_startproc
 846              		@ args = 0, pretend = 0, frame = 0
 847              		@ frame_needed = 0, uses_anonymous_args = 0
 416:USB_DEVICE/Target/usbd_conf.c ****   HAL_StatusTypeDef hal_status = HAL_OK;
 848              		.loc 1 416 1 is_stmt 0 view .LVU176
 849 0000 08B5     		push	{r3, lr}
 850              	.LCFI20:
 851              		.cfi_def_cfa_offset 8
 852              		.cfi_offset 3, -8
 853              		.cfi_offset 14, -4
 417:USB_DEVICE/Target/usbd_conf.c ****   USBD_StatusTypeDef usb_status = USBD_OK;
 854              		.loc 1 417 3 is_stmt 1 view .LVU177
 855              	.LVL81:
 418:USB_DEVICE/Target/usbd_conf.c **** 
 856              		.loc 1 418 3 view .LVU178
 420:USB_DEVICE/Target/usbd_conf.c **** 
 857              		.loc 1 420 3 view .LVU179
 420:USB_DEVICE/Target/usbd_conf.c **** 
 858              		.loc 1 420 16 is_stmt 0 view .LVU180
 859 0002 D0F8C002 		ldr	r0, [r0, #704]
 860              	.LVL82:
 420:USB_DEVICE/Target/usbd_conf.c **** 
 861              		.loc 1 420 16 view .LVU181
 862 0006 FFF7FEFF 		bl	HAL_PCD_EP_Close
 863              	.LVL83:
ARM GAS  /var/folders/d0/j8mk8sqj1vq6yyqnh7jfzr040000gn/T//cc2np6Aj.s 			page 30


 422:USB_DEVICE/Target/usbd_conf.c **** 
 864              		.loc 1 422 3 is_stmt 1 view .LVU182
 422:USB_DEVICE/Target/usbd_conf.c **** 
 865              		.loc 1 422 17 is_stmt 0 view .LVU183
 866 000a FFF7FEFF 		bl	USBD_Get_USB_Status
 867              	.LVL84:
 424:USB_DEVICE/Target/usbd_conf.c **** }
 868              		.loc 1 424 3 is_stmt 1 view .LVU184
 425:USB_DEVICE/Target/usbd_conf.c **** 
 869              		.loc 1 425 1 is_stmt 0 view .LVU185
 870 000e 08BD     		pop	{r3, pc}
 871              		.cfi_endproc
 872              	.LFE86:
 874              		.section	.text.USBD_LL_FlushEP,"ax",%progbits
 875              		.align	1
 876              		.global	USBD_LL_FlushEP
 877              		.syntax unified
 878              		.thumb
 879              		.thumb_func
 881              	USBD_LL_FlushEP:
 882              	.LVL85:
 883              	.LFB87:
 434:USB_DEVICE/Target/usbd_conf.c ****   HAL_StatusTypeDef hal_status = HAL_OK;
 884              		.loc 1 434 1 is_stmt 1 view -0
 885              		.cfi_startproc
 886              		@ args = 0, pretend = 0, frame = 0
 887              		@ frame_needed = 0, uses_anonymous_args = 0
 434:USB_DEVICE/Target/usbd_conf.c ****   HAL_StatusTypeDef hal_status = HAL_OK;
 888              		.loc 1 434 1 is_stmt 0 view .LVU187
 889 0000 08B5     		push	{r3, lr}
 890              	.LCFI21:
 891              		.cfi_def_cfa_offset 8
 892              		.cfi_offset 3, -8
 893              		.cfi_offset 14, -4
 435:USB_DEVICE/Target/usbd_conf.c ****   USBD_StatusTypeDef usb_status = USBD_OK;
 894              		.loc 1 435 3 is_stmt 1 view .LVU188
 895              	.LVL86:
 436:USB_DEVICE/Target/usbd_conf.c **** 
 896              		.loc 1 436 3 view .LVU189
 438:USB_DEVICE/Target/usbd_conf.c **** 
 897              		.loc 1 438 3 view .LVU190
 438:USB_DEVICE/Target/usbd_conf.c **** 
 898              		.loc 1 438 16 is_stmt 0 view .LVU191
 899 0002 D0F8C002 		ldr	r0, [r0, #704]
 900              	.LVL87:
 438:USB_DEVICE/Target/usbd_conf.c **** 
 901              		.loc 1 438 16 view .LVU192
 902 0006 FFF7FEFF 		bl	HAL_PCD_EP_Flush
 903              	.LVL88:
 440:USB_DEVICE/Target/usbd_conf.c **** 
 904              		.loc 1 440 3 is_stmt 1 view .LVU193
 440:USB_DEVICE/Target/usbd_conf.c **** 
 905              		.loc 1 440 17 is_stmt 0 view .LVU194
 906 000a FFF7FEFF 		bl	USBD_Get_USB_Status
 907              	.LVL89:
 442:USB_DEVICE/Target/usbd_conf.c **** }
 908              		.loc 1 442 3 is_stmt 1 view .LVU195
ARM GAS  /var/folders/d0/j8mk8sqj1vq6yyqnh7jfzr040000gn/T//cc2np6Aj.s 			page 31


 443:USB_DEVICE/Target/usbd_conf.c **** 
 909              		.loc 1 443 1 is_stmt 0 view .LVU196
 910 000e 08BD     		pop	{r3, pc}
 911              		.cfi_endproc
 912              	.LFE87:
 914              		.section	.text.USBD_LL_StallEP,"ax",%progbits
 915              		.align	1
 916              		.global	USBD_LL_StallEP
 917              		.syntax unified
 918              		.thumb
 919              		.thumb_func
 921              	USBD_LL_StallEP:
 922              	.LVL90:
 923              	.LFB88:
 452:USB_DEVICE/Target/usbd_conf.c ****   HAL_StatusTypeDef hal_status = HAL_OK;
 924              		.loc 1 452 1 is_stmt 1 view -0
 925              		.cfi_startproc
 926              		@ args = 0, pretend = 0, frame = 0
 927              		@ frame_needed = 0, uses_anonymous_args = 0
 452:USB_DEVICE/Target/usbd_conf.c ****   HAL_StatusTypeDef hal_status = HAL_OK;
 928              		.loc 1 452 1 is_stmt 0 view .LVU198
 929 0000 08B5     		push	{r3, lr}
 930              	.LCFI22:
 931              		.cfi_def_cfa_offset 8
 932              		.cfi_offset 3, -8
 933              		.cfi_offset 14, -4
 453:USB_DEVICE/Target/usbd_conf.c ****   USBD_StatusTypeDef usb_status = USBD_OK;
 934              		.loc 1 453 3 is_stmt 1 view .LVU199
 935              	.LVL91:
 454:USB_DEVICE/Target/usbd_conf.c **** 
 936              		.loc 1 454 3 view .LVU200
 456:USB_DEVICE/Target/usbd_conf.c **** 
 937              		.loc 1 456 3 view .LVU201
 456:USB_DEVICE/Target/usbd_conf.c **** 
 938              		.loc 1 456 16 is_stmt 0 view .LVU202
 939 0002 D0F8C002 		ldr	r0, [r0, #704]
 940              	.LVL92:
 456:USB_DEVICE/Target/usbd_conf.c **** 
 941              		.loc 1 456 16 view .LVU203
 942 0006 FFF7FEFF 		bl	HAL_PCD_EP_SetStall
 943              	.LVL93:
 458:USB_DEVICE/Target/usbd_conf.c **** 
 944              		.loc 1 458 3 is_stmt 1 view .LVU204
 458:USB_DEVICE/Target/usbd_conf.c **** 
 945              		.loc 1 458 17 is_stmt 0 view .LVU205
 946 000a FFF7FEFF 		bl	USBD_Get_USB_Status
 947              	.LVL94:
 460:USB_DEVICE/Target/usbd_conf.c **** }
 948              		.loc 1 460 3 is_stmt 1 view .LVU206
 461:USB_DEVICE/Target/usbd_conf.c **** 
 949              		.loc 1 461 1 is_stmt 0 view .LVU207
 950 000e 08BD     		pop	{r3, pc}
 951              		.cfi_endproc
 952              	.LFE88:
 954              		.section	.text.USBD_LL_ClearStallEP,"ax",%progbits
 955              		.align	1
 956              		.global	USBD_LL_ClearStallEP
ARM GAS  /var/folders/d0/j8mk8sqj1vq6yyqnh7jfzr040000gn/T//cc2np6Aj.s 			page 32


 957              		.syntax unified
 958              		.thumb
 959              		.thumb_func
 961              	USBD_LL_ClearStallEP:
 962              	.LVL95:
 963              	.LFB89:
 470:USB_DEVICE/Target/usbd_conf.c ****   HAL_StatusTypeDef hal_status = HAL_OK;
 964              		.loc 1 470 1 is_stmt 1 view -0
 965              		.cfi_startproc
 966              		@ args = 0, pretend = 0, frame = 0
 967              		@ frame_needed = 0, uses_anonymous_args = 0
 470:USB_DEVICE/Target/usbd_conf.c ****   HAL_StatusTypeDef hal_status = HAL_OK;
 968              		.loc 1 470 1 is_stmt 0 view .LVU209
 969 0000 08B5     		push	{r3, lr}
 970              	.LCFI23:
 971              		.cfi_def_cfa_offset 8
 972              		.cfi_offset 3, -8
 973              		.cfi_offset 14, -4
 471:USB_DEVICE/Target/usbd_conf.c ****   USBD_StatusTypeDef usb_status = USBD_OK;
 974              		.loc 1 471 3 is_stmt 1 view .LVU210
 975              	.LVL96:
 472:USB_DEVICE/Target/usbd_conf.c **** 
 976              		.loc 1 472 3 view .LVU211
 474:USB_DEVICE/Target/usbd_conf.c **** 
 977              		.loc 1 474 3 view .LVU212
 474:USB_DEVICE/Target/usbd_conf.c **** 
 978              		.loc 1 474 16 is_stmt 0 view .LVU213
 979 0002 D0F8C002 		ldr	r0, [r0, #704]
 980              	.LVL97:
 474:USB_DEVICE/Target/usbd_conf.c **** 
 981              		.loc 1 474 16 view .LVU214
 982 0006 FFF7FEFF 		bl	HAL_PCD_EP_ClrStall
 983              	.LVL98:
 476:USB_DEVICE/Target/usbd_conf.c **** 
 984              		.loc 1 476 3 is_stmt 1 view .LVU215
 476:USB_DEVICE/Target/usbd_conf.c **** 
 985              		.loc 1 476 17 is_stmt 0 view .LVU216
 986 000a FFF7FEFF 		bl	USBD_Get_USB_Status
 987              	.LVL99:
 478:USB_DEVICE/Target/usbd_conf.c **** }
 988              		.loc 1 478 3 is_stmt 1 view .LVU217
 479:USB_DEVICE/Target/usbd_conf.c **** 
 989              		.loc 1 479 1 is_stmt 0 view .LVU218
 990 000e 08BD     		pop	{r3, pc}
 991              		.cfi_endproc
 992              	.LFE89:
 994              		.section	.text.USBD_LL_IsStallEP,"ax",%progbits
 995              		.align	1
 996              		.global	USBD_LL_IsStallEP
 997              		.syntax unified
 998              		.thumb
 999              		.thumb_func
 1001              	USBD_LL_IsStallEP:
 1002              	.LVL100:
 1003              	.LFB90:
 488:USB_DEVICE/Target/usbd_conf.c ****   PCD_HandleTypeDef *hpcd = (PCD_HandleTypeDef*) pdev->pData;
 1004              		.loc 1 488 1 is_stmt 1 view -0
ARM GAS  /var/folders/d0/j8mk8sqj1vq6yyqnh7jfzr040000gn/T//cc2np6Aj.s 			page 33


 1005              		.cfi_startproc
 1006              		@ args = 0, pretend = 0, frame = 0
 1007              		@ frame_needed = 0, uses_anonymous_args = 0
 1008              		@ link register save eliminated.
 489:USB_DEVICE/Target/usbd_conf.c **** 
 1009              		.loc 1 489 3 view .LVU220
 489:USB_DEVICE/Target/usbd_conf.c **** 
 1010              		.loc 1 489 22 is_stmt 0 view .LVU221
 1011 0000 D0F8C032 		ldr	r3, [r0, #704]
 1012              	.LVL101:
 491:USB_DEVICE/Target/usbd_conf.c ****   {
 1013              		.loc 1 491 3 is_stmt 1 view .LVU222
 491:USB_DEVICE/Target/usbd_conf.c ****   {
 1014              		.loc 1 491 5 is_stmt 0 view .LVU223
 1015 0004 11F0800F 		tst	r1, #128
 1016 0008 08D1     		bne	.L74
 497:USB_DEVICE/Target/usbd_conf.c ****   }
 1017              		.loc 1 497 5 is_stmt 1 view .LVU224
 497:USB_DEVICE/Target/usbd_conf.c ****   }
 1018              		.loc 1 497 33 is_stmt 0 view .LVU225
 1019 000a 01F07F01 		and	r1, r1, #127
 1020              	.LVL102:
 497:USB_DEVICE/Target/usbd_conf.c ****   }
 1021              		.loc 1 497 40 view .LVU226
 1022 000e 01EB8101 		add	r1, r1, r1, lsl #2
 1023 0012 03EBC103 		add	r3, r3, r1, lsl #3
 1024              	.LVL103:
 497:USB_DEVICE/Target/usbd_conf.c ****   }
 1025              		.loc 1 497 40 view .LVU227
 1026 0016 93F86A01 		ldrb	r0, [r3, #362]	@ zero_extendqisi2
 1027              	.LVL104:
 499:USB_DEVICE/Target/usbd_conf.c **** 
 1028              		.loc 1 499 1 view .LVU228
 1029 001a 7047     		bx	lr
 1030              	.LVL105:
 1031              	.L74:
 493:USB_DEVICE/Target/usbd_conf.c ****   }
 1032              		.loc 1 493 5 is_stmt 1 view .LVU229
 493:USB_DEVICE/Target/usbd_conf.c ****   }
 1033              		.loc 1 493 32 is_stmt 0 view .LVU230
 1034 001c 01F07F01 		and	r1, r1, #127
 1035              	.LVL106:
 493:USB_DEVICE/Target/usbd_conf.c ****   }
 1036              		.loc 1 493 39 view .LVU231
 1037 0020 0131     		adds	r1, r1, #1
 1038 0022 01EB8101 		add	r1, r1, r1, lsl #2
 1039 0026 03EBC103 		add	r3, r3, r1, lsl #3
 1040              	.LVL107:
 493:USB_DEVICE/Target/usbd_conf.c ****   }
 1041              		.loc 1 493 39 view .LVU232
 1042 002a 9878     		ldrb	r0, [r3, #2]	@ zero_extendqisi2
 1043              	.LVL108:
 493:USB_DEVICE/Target/usbd_conf.c ****   }
 1044              		.loc 1 493 39 view .LVU233
 1045 002c 7047     		bx	lr
 1046              		.cfi_endproc
 1047              	.LFE90:
ARM GAS  /var/folders/d0/j8mk8sqj1vq6yyqnh7jfzr040000gn/T//cc2np6Aj.s 			page 34


 1049              		.section	.text.USBD_LL_SetUSBAddress,"ax",%progbits
 1050              		.align	1
 1051              		.global	USBD_LL_SetUSBAddress
 1052              		.syntax unified
 1053              		.thumb
 1054              		.thumb_func
 1056              	USBD_LL_SetUSBAddress:
 1057              	.LVL109:
 1058              	.LFB91:
 508:USB_DEVICE/Target/usbd_conf.c ****   HAL_StatusTypeDef hal_status = HAL_OK;
 1059              		.loc 1 508 1 is_stmt 1 view -0
 1060              		.cfi_startproc
 1061              		@ args = 0, pretend = 0, frame = 0
 1062              		@ frame_needed = 0, uses_anonymous_args = 0
 508:USB_DEVICE/Target/usbd_conf.c ****   HAL_StatusTypeDef hal_status = HAL_OK;
 1063              		.loc 1 508 1 is_stmt 0 view .LVU235
 1064 0000 08B5     		push	{r3, lr}
 1065              	.LCFI24:
 1066              		.cfi_def_cfa_offset 8
 1067              		.cfi_offset 3, -8
 1068              		.cfi_offset 14, -4
 509:USB_DEVICE/Target/usbd_conf.c ****   USBD_StatusTypeDef usb_status = USBD_OK;
 1069              		.loc 1 509 3 is_stmt 1 view .LVU236
 1070              	.LVL110:
 510:USB_DEVICE/Target/usbd_conf.c **** 
 1071              		.loc 1 510 3 view .LVU237
 512:USB_DEVICE/Target/usbd_conf.c **** 
 1072              		.loc 1 512 3 view .LVU238
 512:USB_DEVICE/Target/usbd_conf.c **** 
 1073              		.loc 1 512 16 is_stmt 0 view .LVU239
 1074 0002 D0F8C002 		ldr	r0, [r0, #704]
 1075              	.LVL111:
 512:USB_DEVICE/Target/usbd_conf.c **** 
 1076              		.loc 1 512 16 view .LVU240
 1077 0006 FFF7FEFF 		bl	HAL_PCD_SetAddress
 1078              	.LVL112:
 514:USB_DEVICE/Target/usbd_conf.c **** 
 1079              		.loc 1 514 3 is_stmt 1 view .LVU241
 514:USB_DEVICE/Target/usbd_conf.c **** 
 1080              		.loc 1 514 17 is_stmt 0 view .LVU242
 1081 000a FFF7FEFF 		bl	USBD_Get_USB_Status
 1082              	.LVL113:
 516:USB_DEVICE/Target/usbd_conf.c **** }
 1083              		.loc 1 516 3 is_stmt 1 view .LVU243
 517:USB_DEVICE/Target/usbd_conf.c **** 
 1084              		.loc 1 517 1 is_stmt 0 view .LVU244
 1085 000e 08BD     		pop	{r3, pc}
 1086              		.cfi_endproc
 1087              	.LFE91:
 1089              		.section	.text.USBD_LL_Transmit,"ax",%progbits
 1090              		.align	1
 1091              		.global	USBD_LL_Transmit
 1092              		.syntax unified
 1093              		.thumb
 1094              		.thumb_func
 1096              	USBD_LL_Transmit:
 1097              	.LVL114:
ARM GAS  /var/folders/d0/j8mk8sqj1vq6yyqnh7jfzr040000gn/T//cc2np6Aj.s 			page 35


 1098              	.LFB92:
 528:USB_DEVICE/Target/usbd_conf.c ****   HAL_StatusTypeDef hal_status = HAL_OK;
 1099              		.loc 1 528 1 is_stmt 1 view -0
 1100              		.cfi_startproc
 1101              		@ args = 0, pretend = 0, frame = 0
 1102              		@ frame_needed = 0, uses_anonymous_args = 0
 528:USB_DEVICE/Target/usbd_conf.c ****   HAL_StatusTypeDef hal_status = HAL_OK;
 1103              		.loc 1 528 1 is_stmt 0 view .LVU246
 1104 0000 08B5     		push	{r3, lr}
 1105              	.LCFI25:
 1106              		.cfi_def_cfa_offset 8
 1107              		.cfi_offset 3, -8
 1108              		.cfi_offset 14, -4
 529:USB_DEVICE/Target/usbd_conf.c ****   USBD_StatusTypeDef usb_status = USBD_OK;
 1109              		.loc 1 529 3 is_stmt 1 view .LVU247
 1110              	.LVL115:
 530:USB_DEVICE/Target/usbd_conf.c **** 
 1111              		.loc 1 530 3 view .LVU248
 532:USB_DEVICE/Target/usbd_conf.c **** 
 1112              		.loc 1 532 3 view .LVU249
 532:USB_DEVICE/Target/usbd_conf.c **** 
 1113              		.loc 1 532 16 is_stmt 0 view .LVU250
 1114 0002 D0F8C002 		ldr	r0, [r0, #704]
 1115              	.LVL116:
 532:USB_DEVICE/Target/usbd_conf.c **** 
 1116              		.loc 1 532 16 view .LVU251
 1117 0006 FFF7FEFF 		bl	HAL_PCD_EP_Transmit
 1118              	.LVL117:
 534:USB_DEVICE/Target/usbd_conf.c **** 
 1119              		.loc 1 534 3 is_stmt 1 view .LVU252
 534:USB_DEVICE/Target/usbd_conf.c **** 
 1120              		.loc 1 534 17 is_stmt 0 view .LVU253
 1121 000a FFF7FEFF 		bl	USBD_Get_USB_Status
 1122              	.LVL118:
 536:USB_DEVICE/Target/usbd_conf.c **** }
 1123              		.loc 1 536 3 is_stmt 1 view .LVU254
 537:USB_DEVICE/Target/usbd_conf.c **** 
 1124              		.loc 1 537 1 is_stmt 0 view .LVU255
 1125 000e 08BD     		pop	{r3, pc}
 1126              		.cfi_endproc
 1127              	.LFE92:
 1129              		.section	.text.USBD_LL_PrepareReceive,"ax",%progbits
 1130              		.align	1
 1131              		.global	USBD_LL_PrepareReceive
 1132              		.syntax unified
 1133              		.thumb
 1134              		.thumb_func
 1136              	USBD_LL_PrepareReceive:
 1137              	.LVL119:
 1138              	.LFB93:
 548:USB_DEVICE/Target/usbd_conf.c ****   HAL_StatusTypeDef hal_status = HAL_OK;
 1139              		.loc 1 548 1 is_stmt 1 view -0
 1140              		.cfi_startproc
 1141              		@ args = 0, pretend = 0, frame = 0
 1142              		@ frame_needed = 0, uses_anonymous_args = 0
 548:USB_DEVICE/Target/usbd_conf.c ****   HAL_StatusTypeDef hal_status = HAL_OK;
 1143              		.loc 1 548 1 is_stmt 0 view .LVU257
ARM GAS  /var/folders/d0/j8mk8sqj1vq6yyqnh7jfzr040000gn/T//cc2np6Aj.s 			page 36


 1144 0000 08B5     		push	{r3, lr}
 1145              	.LCFI26:
 1146              		.cfi_def_cfa_offset 8
 1147              		.cfi_offset 3, -8
 1148              		.cfi_offset 14, -4
 549:USB_DEVICE/Target/usbd_conf.c ****   USBD_StatusTypeDef usb_status = USBD_OK;
 1149              		.loc 1 549 3 is_stmt 1 view .LVU258
 1150              	.LVL120:
 550:USB_DEVICE/Target/usbd_conf.c **** 
 1151              		.loc 1 550 3 view .LVU259
 552:USB_DEVICE/Target/usbd_conf.c **** 
 1152              		.loc 1 552 3 view .LVU260
 552:USB_DEVICE/Target/usbd_conf.c **** 
 1153              		.loc 1 552 16 is_stmt 0 view .LVU261
 1154 0002 D0F8C002 		ldr	r0, [r0, #704]
 1155              	.LVL121:
 552:USB_DEVICE/Target/usbd_conf.c **** 
 1156              		.loc 1 552 16 view .LVU262
 1157 0006 FFF7FEFF 		bl	HAL_PCD_EP_Receive
 1158              	.LVL122:
 554:USB_DEVICE/Target/usbd_conf.c **** 
 1159              		.loc 1 554 3 is_stmt 1 view .LVU263
 554:USB_DEVICE/Target/usbd_conf.c **** 
 1160              		.loc 1 554 17 is_stmt 0 view .LVU264
 1161 000a FFF7FEFF 		bl	USBD_Get_USB_Status
 1162              	.LVL123:
 556:USB_DEVICE/Target/usbd_conf.c **** }
 1163              		.loc 1 556 3 is_stmt 1 view .LVU265
 557:USB_DEVICE/Target/usbd_conf.c **** 
 1164              		.loc 1 557 1 is_stmt 0 view .LVU266
 1165 000e 08BD     		pop	{r3, pc}
 1166              		.cfi_endproc
 1167              	.LFE93:
 1169              		.section	.text.USBD_LL_GetRxDataSize,"ax",%progbits
 1170              		.align	1
 1171              		.global	USBD_LL_GetRxDataSize
 1172              		.syntax unified
 1173              		.thumb
 1174              		.thumb_func
 1176              	USBD_LL_GetRxDataSize:
 1177              	.LVL124:
 1178              	.LFB94:
 566:USB_DEVICE/Target/usbd_conf.c ****   return HAL_PCD_EP_GetRxCount((PCD_HandleTypeDef*) pdev->pData, ep_addr);
 1179              		.loc 1 566 1 is_stmt 1 view -0
 1180              		.cfi_startproc
 1181              		@ args = 0, pretend = 0, frame = 0
 1182              		@ frame_needed = 0, uses_anonymous_args = 0
 566:USB_DEVICE/Target/usbd_conf.c ****   return HAL_PCD_EP_GetRxCount((PCD_HandleTypeDef*) pdev->pData, ep_addr);
 1183              		.loc 1 566 1 is_stmt 0 view .LVU268
 1184 0000 08B5     		push	{r3, lr}
 1185              	.LCFI27:
 1186              		.cfi_def_cfa_offset 8
 1187              		.cfi_offset 3, -8
 1188              		.cfi_offset 14, -4
 567:USB_DEVICE/Target/usbd_conf.c **** }
 1189              		.loc 1 567 3 is_stmt 1 view .LVU269
 567:USB_DEVICE/Target/usbd_conf.c **** }
ARM GAS  /var/folders/d0/j8mk8sqj1vq6yyqnh7jfzr040000gn/T//cc2np6Aj.s 			page 37


 1190              		.loc 1 567 10 is_stmt 0 view .LVU270
 1191 0002 D0F8C002 		ldr	r0, [r0, #704]
 1192              	.LVL125:
 567:USB_DEVICE/Target/usbd_conf.c **** }
 1193              		.loc 1 567 10 view .LVU271
 1194 0006 FFF7FEFF 		bl	HAL_PCD_EP_GetRxCount
 1195              	.LVL126:
 568:USB_DEVICE/Target/usbd_conf.c **** 
 1196              		.loc 1 568 1 view .LVU272
 1197 000a 08BD     		pop	{r3, pc}
 1198              		.cfi_endproc
 1199              	.LFE94:
 1201              		.section	.text.USBD_LL_Delay,"ax",%progbits
 1202              		.align	1
 1203              		.global	USBD_LL_Delay
 1204              		.syntax unified
 1205              		.thumb
 1206              		.thumb_func
 1208              	USBD_LL_Delay:
 1209              	.LVL127:
 1210              	.LFB95:
 576:USB_DEVICE/Target/usbd_conf.c ****   HAL_Delay(Delay);
 1211              		.loc 1 576 1 is_stmt 1 view -0
 1212              		.cfi_startproc
 1213              		@ args = 0, pretend = 0, frame = 0
 1214              		@ frame_needed = 0, uses_anonymous_args = 0
 576:USB_DEVICE/Target/usbd_conf.c ****   HAL_Delay(Delay);
 1215              		.loc 1 576 1 is_stmt 0 view .LVU274
 1216 0000 08B5     		push	{r3, lr}
 1217              	.LCFI28:
 1218              		.cfi_def_cfa_offset 8
 1219              		.cfi_offset 3, -8
 1220              		.cfi_offset 14, -4
 577:USB_DEVICE/Target/usbd_conf.c **** }
 1221              		.loc 1 577 3 is_stmt 1 view .LVU275
 1222 0002 FFF7FEFF 		bl	HAL_Delay
 1223              	.LVL128:
 578:USB_DEVICE/Target/usbd_conf.c **** 
 1224              		.loc 1 578 1 is_stmt 0 view .LVU276
 1225 0006 08BD     		pop	{r3, pc}
 1226              		.cfi_endproc
 1227              	.LFE95:
 1229              		.section	.text.USBD_static_malloc,"ax",%progbits
 1230              		.align	1
 1231              		.global	USBD_static_malloc
 1232              		.syntax unified
 1233              		.thumb
 1234              		.thumb_func
 1236              	USBD_static_malloc:
 1237              	.LVL129:
 1238              	.LFB96:
 586:USB_DEVICE/Target/usbd_conf.c ****   static uint32_t mem[(sizeof(USBD_DFU_HandleTypeDef)/4)+1];/* On 32-bit boundary */
 1239              		.loc 1 586 1 is_stmt 1 view -0
 1240              		.cfi_startproc
 1241              		@ args = 0, pretend = 0, frame = 0
 1242              		@ frame_needed = 0, uses_anonymous_args = 0
 1243              		@ link register save eliminated.
ARM GAS  /var/folders/d0/j8mk8sqj1vq6yyqnh7jfzr040000gn/T//cc2np6Aj.s 			page 38


 587:USB_DEVICE/Target/usbd_conf.c ****   return mem;
 1244              		.loc 1 587 3 view .LVU278
 588:USB_DEVICE/Target/usbd_conf.c **** }
 1245              		.loc 1 588 3 view .LVU279
 589:USB_DEVICE/Target/usbd_conf.c **** 
 1246              		.loc 1 589 1 is_stmt 0 view .LVU280
 1247 0000 0048     		ldr	r0, .L86
 1248              	.LVL130:
 589:USB_DEVICE/Target/usbd_conf.c **** 
 1249              		.loc 1 589 1 view .LVU281
 1250 0002 7047     		bx	lr
 1251              	.L87:
 1252              		.align	2
 1253              	.L86:
 1254 0004 00000000 		.word	mem.0
 1255              		.cfi_endproc
 1256              	.LFE96:
 1258              		.section	.text.USBD_static_free,"ax",%progbits
 1259              		.align	1
 1260              		.global	USBD_static_free
 1261              		.syntax unified
 1262              		.thumb
 1263              		.thumb_func
 1265              	USBD_static_free:
 1266              	.LVL131:
 1267              	.LFB97:
 597:USB_DEVICE/Target/usbd_conf.c **** 
 1268              		.loc 1 597 1 is_stmt 1 view -0
 1269              		.cfi_startproc
 1270              		@ args = 0, pretend = 0, frame = 0
 1271              		@ frame_needed = 0, uses_anonymous_args = 0
 1272              		@ link register save eliminated.
 599:USB_DEVICE/Target/usbd_conf.c **** 
 1273              		.loc 1 599 1 view .LVU283
 1274 0000 7047     		bx	lr
 1275              		.cfi_endproc
 1276              	.LFE97:
 1278              		.section	.text.HAL_PCDEx_SetConnectionState,"ax",%progbits
 1279              		.align	1
 1280              		.global	HAL_PCDEx_SetConnectionState
 1281              		.syntax unified
 1282              		.thumb
 1283              		.thumb_func
 1285              	HAL_PCDEx_SetConnectionState:
 1286              	.LVL132:
 1287              	.LFB98:
 612:USB_DEVICE/Target/usbd_conf.c ****   /* USER CODE BEGIN 6 */
 1288              		.loc 1 612 1 view -0
 1289              		.cfi_startproc
 1290              		@ args = 0, pretend = 0, frame = 0
 1291              		@ frame_needed = 0, uses_anonymous_args = 0
 1292              		@ link register save eliminated.
 614:USB_DEVICE/Target/usbd_conf.c ****   {
 1293              		.loc 1 614 3 view .LVU285
 623:USB_DEVICE/Target/usbd_conf.c ****   /* USER CODE END 6 */
 1294              		.loc 1 623 3 view .LVU286
 625:USB_DEVICE/Target/usbd_conf.c **** 
ARM GAS  /var/folders/d0/j8mk8sqj1vq6yyqnh7jfzr040000gn/T//cc2np6Aj.s 			page 39


 1295              		.loc 1 625 1 is_stmt 0 view .LVU287
 1296 0000 7047     		bx	lr
 1297              		.cfi_endproc
 1298              	.LFE98:
 1300              		.section	.bss.mem.0,"aw",%nobits
 1301              		.align	2
 1304              	mem.0:
 1305 0000 00000000 		.space	1056
 1305      00000000 
 1305      00000000 
 1305      00000000 
 1305      00000000 
 1306              		.global	hpcd_USB_FS
 1307              		.section	.bss.hpcd_USB_FS,"aw",%nobits
 1308              		.align	2
 1311              	hpcd_USB_FS:
 1312 0000 00000000 		.space	752
 1312      00000000 
 1312      00000000 
 1312      00000000 
 1312      00000000 
 1313              		.text
 1314              	.Letext0:
 1315              		.file 2 "Drivers/CMSIS/Device/ST/STM32F1xx/Include/stm32f103xb.h"
 1316              		.file 3 "/Applications/ArmGNUToolchain/12.2.rel1/arm-none-eabi/arm-none-eabi/include/machine/_defa
 1317              		.file 4 "/Applications/ArmGNUToolchain/12.2.rel1/arm-none-eabi/arm-none-eabi/include/sys/_stdint.h
 1318              		.file 5 "Drivers/CMSIS/Include/core_cm3.h"
 1319              		.file 6 "Drivers/CMSIS/Device/ST/STM32F1xx/Include/stm32f1xx.h"
 1320              		.file 7 "Drivers/STM32F1xx_HAL_Driver/Inc/stm32f1xx_hal_def.h"
 1321              		.file 8 "Drivers/STM32F1xx_HAL_Driver/Inc/stm32f1xx_ll_usb.h"
 1322              		.file 9 "Drivers/STM32F1xx_HAL_Driver/Inc/stm32f1xx_hal_pcd.h"
 1323              		.file 10 "Middlewares/ST/STM32_USB_Device_Library/Core/Inc/usbd_def.h"
 1324              		.file 11 "Drivers/STM32F1xx_HAL_Driver/Inc/stm32f1xx_hal_pcd_ex.h"
 1325              		.file 12 "Middlewares/ST/STM32_USB_Device_Library/Core/Inc/usbd_core.h"
 1326              		.file 13 "Drivers/STM32F1xx_HAL_Driver/Inc/stm32f1xx_hal.h"
 1327              		.file 14 "Drivers/STM32F1xx_HAL_Driver/Inc/stm32f1xx_hal_cortex.h"
ARM GAS  /var/folders/d0/j8mk8sqj1vq6yyqnh7jfzr040000gn/T//cc2np6Aj.s 			page 40

